Archive member included because of file (symbol)

c:/program files (x86)/gnu tools arm embedded/4.8 2014q1/bin/../lib/gcc/arm-none-eabi/4.8.3/armv7e-m\libgcc.a(_arm_addsubdf3.o)
                              ..\obj\httpd_cgi_ssi.o (__aeabi_ui2d)
c:/program files (x86)/gnu tools arm embedded/4.8 2014q1/bin/../lib/gcc/arm-none-eabi/4.8.3/armv7e-m\libgcc.a(_arm_muldivdf3.o)
                              ..\obj\httpd_cgi_ssi.o (__aeabi_dmul)
c:/program files (x86)/gnu tools arm embedded/4.8 2014q1/bin/../lib/gcc/arm-none-eabi/4.8.3/armv7e-m\libgcc.a(_arm_fixunsdfsi.o)
                              ..\obj\httpd_cgi_ssi.o (__aeabi_d2uiz)
c:/program files (x86)/gnu tools arm embedded/4.8 2014q1/bin/../lib/gcc/arm-none-eabi/4.8.3/../../../../arm-none-eabi/lib/armv7e-m\libg.a(lib_a-memcmp.o)
                              ..\obj\autoip.o (memcmp)
c:/program files (x86)/gnu tools arm embedded/4.8 2014q1/bin/../lib/gcc/arm-none-eabi/4.8.3/../../../../arm-none-eabi/lib/armv7e-m\libg.a(lib_a-memcpy.o)
                              ..\obj\ip_frag.o (memcpy)
c:/program files (x86)/gnu tools arm embedded/4.8 2014q1/bin/../lib/gcc/arm-none-eabi/4.8.3/../../../../arm-none-eabi/lib/armv7e-m\libg.a(lib_a-memset.o)
                              ..\obj\mem.o (memset)
c:/program files (x86)/gnu tools arm embedded/4.8 2014q1/bin/../lib/gcc/arm-none-eabi/4.8.3/../../../../arm-none-eabi/lib/armv7e-m\libg.a(lib_a-sprintf.o)
                              ..\obj\netconf.o (sprintf)
c:/program files (x86)/gnu tools arm embedded/4.8 2014q1/bin/../lib/gcc/arm-none-eabi/4.8.3/../../../../arm-none-eabi/lib/armv7e-m\libg.a(lib_a-strchr.o)
                              ..\obj\httpd.o (strchr)
c:/program files (x86)/gnu tools arm embedded/4.8 2014q1/bin/../lib/gcc/arm-none-eabi/4.8.3/../../../../arm-none-eabi/lib/armv7e-m\libg.a(lib_a-strcmp.o)
                              ..\obj\fs.o (strcmp)
c:/program files (x86)/gnu tools arm embedded/4.8 2014q1/bin/../lib/gcc/arm-none-eabi/4.8.3/../../../../arm-none-eabi/lib/armv7e-m\libg.a(lib_a-strlen.o)
                              ..\obj\httpd.o (strlen)
c:/program files (x86)/gnu tools arm embedded/4.8 2014q1/bin/../lib/gcc/arm-none-eabi/4.8.3/../../../../arm-none-eabi/lib/armv7e-m\libg.a(lib_a-strncmp.o)
                              ..\obj\httpd.o (strncmp)
c:/program files (x86)/gnu tools arm embedded/4.8 2014q1/bin/../lib/gcc/arm-none-eabi/4.8.3/../../../../arm-none-eabi/lib/armv7e-m\libg.a(lib_a-strstr.o)
                              ..\obj\httpd.o (strstr)
c:/program files (x86)/gnu tools arm embedded/4.8 2014q1/bin/../lib/gcc/arm-none-eabi/4.8.3/../../../../arm-none-eabi/lib/armv7e-m\libg.a(lib_a-svfprintf.o)
                              c:/program files (x86)/gnu tools arm embedded/4.8 2014q1/bin/../lib/gcc/arm-none-eabi/4.8.3/../../../../arm-none-eabi/lib/armv7e-m\libg.a(lib_a-sprintf.o) (_svfprintf_r)
c:/program files (x86)/gnu tools arm embedded/4.8 2014q1/bin/../lib/gcc/arm-none-eabi/4.8.3/../../../../arm-none-eabi/lib/armv7e-m\libg.a(lib_a-dtoa.o)
                              c:/program files (x86)/gnu tools arm embedded/4.8 2014q1/bin/../lib/gcc/arm-none-eabi/4.8.3/../../../../arm-none-eabi/lib/armv7e-m\libg.a(lib_a-svfprintf.o) (_dtoa_r)
c:/program files (x86)/gnu tools arm embedded/4.8 2014q1/bin/../lib/gcc/arm-none-eabi/4.8.3/../../../../arm-none-eabi/lib/armv7e-m\libg.a(lib_a-impure.o)
                              c:/program files (x86)/gnu tools arm embedded/4.8 2014q1/bin/../lib/gcc/arm-none-eabi/4.8.3/../../../../arm-none-eabi/lib/armv7e-m\libg.a(lib_a-sprintf.o) (_impure_ptr)
c:/program files (x86)/gnu tools arm embedded/4.8 2014q1/bin/../lib/gcc/arm-none-eabi/4.8.3/../../../../arm-none-eabi/lib/armv7e-m\libg.a(lib_a-locale.o)
                              c:/program files (x86)/gnu tools arm embedded/4.8 2014q1/bin/../lib/gcc/arm-none-eabi/4.8.3/../../../../arm-none-eabi/lib/armv7e-m\libg.a(lib_a-svfprintf.o) (_localeconv_r)
c:/program files (x86)/gnu tools arm embedded/4.8 2014q1/bin/../lib/gcc/arm-none-eabi/4.8.3/../../../../arm-none-eabi/lib/armv7e-m\libg.a(lib_a-mallocr.o)
                              c:/program files (x86)/gnu tools arm embedded/4.8 2014q1/bin/../lib/gcc/arm-none-eabi/4.8.3/../../../../arm-none-eabi/lib/armv7e-m\libg.a(lib_a-svfprintf.o) (_malloc_r)
c:/program files (x86)/gnu tools arm embedded/4.8 2014q1/bin/../lib/gcc/arm-none-eabi/4.8.3/../../../../arm-none-eabi/lib/armv7e-m\libg.a(lib_a-memchr-stub.o)
                              c:/program files (x86)/gnu tools arm embedded/4.8 2014q1/bin/../lib/gcc/arm-none-eabi/4.8.3/../../../../arm-none-eabi/lib/armv7e-m\libg.a(lib_a-strstr.o) (memchr)
c:/program files (x86)/gnu tools arm embedded/4.8 2014q1/bin/../lib/gcc/arm-none-eabi/4.8.3/../../../../arm-none-eabi/lib/armv7e-m\libg.a(lib_a-mlock.o)
                              c:/program files (x86)/gnu tools arm embedded/4.8 2014q1/bin/../lib/gcc/arm-none-eabi/4.8.3/../../../../arm-none-eabi/lib/armv7e-m\libg.a(lib_a-mallocr.o) (__malloc_lock)
c:/program files (x86)/gnu tools arm embedded/4.8 2014q1/bin/../lib/gcc/arm-none-eabi/4.8.3/../../../../arm-none-eabi/lib/armv7e-m\libg.a(lib_a-mprec.o)
                              c:/program files (x86)/gnu tools arm embedded/4.8 2014q1/bin/../lib/gcc/arm-none-eabi/4.8.3/../../../../arm-none-eabi/lib/armv7e-m\libg.a(lib_a-dtoa.o) (_Balloc)
c:/program files (x86)/gnu tools arm embedded/4.8 2014q1/bin/../lib/gcc/arm-none-eabi/4.8.3/../../../../arm-none-eabi/lib/armv7e-m\libg.a(lib_a-s_fpclassify.o)
                              c:/program files (x86)/gnu tools arm embedded/4.8 2014q1/bin/../lib/gcc/arm-none-eabi/4.8.3/../../../../arm-none-eabi/lib/armv7e-m\libg.a(lib_a-svfprintf.o) (__fpclassifyd)
c:/program files (x86)/gnu tools arm embedded/4.8 2014q1/bin/../lib/gcc/arm-none-eabi/4.8.3/../../../../arm-none-eabi/lib/armv7e-m\libg.a(lib_a-sbrkr.o)
                              c:/program files (x86)/gnu tools arm embedded/4.8 2014q1/bin/../lib/gcc/arm-none-eabi/4.8.3/../../../../arm-none-eabi/lib/armv7e-m\libg.a(lib_a-mallocr.o) (_sbrk_r)
c:/program files (x86)/gnu tools arm embedded/4.8 2014q1/bin/../lib/gcc/arm-none-eabi/4.8.3/../../../../arm-none-eabi/lib/armv7e-m\libg.a(lib_a-svfiprintf.o)
                              c:/program files (x86)/gnu tools arm embedded/4.8 2014q1/bin/../lib/gcc/arm-none-eabi/4.8.3/../../../../arm-none-eabi/lib/armv7e-m\libg.a(lib_a-svfprintf.o) (__ssprint_r)
c:/program files (x86)/gnu tools arm embedded/4.8 2014q1/bin/../lib/gcc/arm-none-eabi/4.8.3/../../../../arm-none-eabi/lib/armv7e-m\libg.a(lib_a-callocr.o)
                              c:/program files (x86)/gnu tools arm embedded/4.8 2014q1/bin/../lib/gcc/arm-none-eabi/4.8.3/../../../../arm-none-eabi/lib/armv7e-m\libg.a(lib_a-mprec.o) (_calloc_r)
c:/program files (x86)/gnu tools arm embedded/4.8 2014q1/bin/../lib/gcc/arm-none-eabi/4.8.3/../../../../arm-none-eabi/lib/armv7e-m\libg.a(lib_a-freer.o)
                              c:/program files (x86)/gnu tools arm embedded/4.8 2014q1/bin/../lib/gcc/arm-none-eabi/4.8.3/../../../../arm-none-eabi/lib/armv7e-m\libg.a(lib_a-mallocr.o) (_free_r)
c:/program files (x86)/gnu tools arm embedded/4.8 2014q1/bin/../lib/gcc/arm-none-eabi/4.8.3/../../../../arm-none-eabi/lib/armv7e-m\libg.a(lib_a-memmove.o)
                              c:/program files (x86)/gnu tools arm embedded/4.8 2014q1/bin/../lib/gcc/arm-none-eabi/4.8.3/../../../../arm-none-eabi/lib/armv7e-m\libg.a(lib_a-svfiprintf.o) (memmove)
c:/program files (x86)/gnu tools arm embedded/4.8 2014q1/bin/../lib/gcc/arm-none-eabi/4.8.3/../../../../arm-none-eabi/lib/armv7e-m\libg.a(lib_a-reallocr.o)
                              c:/program files (x86)/gnu tools arm embedded/4.8 2014q1/bin/../lib/gcc/arm-none-eabi/4.8.3/../../../../arm-none-eabi/lib/armv7e-m\libg.a(lib_a-svfiprintf.o) (_realloc_r)
c:/program files (x86)/gnu tools arm embedded/4.8 2014q1/bin/../lib/gcc/arm-none-eabi/4.8.3/../../../../arm-none-eabi/lib/armv7e-m\libg.a(lib_a-reent.o)
                              c:/program files (x86)/gnu tools arm embedded/4.8 2014q1/bin/../lib/gcc/arm-none-eabi/4.8.3/../../../../arm-none-eabi/lib/armv7e-m\libg.a(lib_a-sbrkr.o) (errno)
c:/program files (x86)/gnu tools arm embedded/4.8 2014q1/bin/../lib/gcc/arm-none-eabi/4.8.3/armv7e-m\libgcc.a(_arm_cmpdf2.o)
                              c:/program files (x86)/gnu tools arm embedded/4.8 2014q1/bin/../lib/gcc/arm-none-eabi/4.8.3/../../../../arm-none-eabi/lib/armv7e-m\libg.a(lib_a-svfprintf.o) (__aeabi_dcmpeq)
c:/program files (x86)/gnu tools arm embedded/4.8 2014q1/bin/../lib/gcc/arm-none-eabi/4.8.3/armv7e-m\libgcc.a(_arm_fixdfsi.o)
                              c:/program files (x86)/gnu tools arm embedded/4.8 2014q1/bin/../lib/gcc/arm-none-eabi/4.8.3/../../../../arm-none-eabi/lib/armv7e-m\libg.a(lib_a-dtoa.o) (__aeabi_d2iz)
c:/program files (x86)/gnu tools arm embedded/4.8 2014q1/bin/../lib/gcc/arm-none-eabi/4.8.3/armv7e-m\libgcc.a(_aeabi_uldivmod.o)
                              c:/program files (x86)/gnu tools arm embedded/4.8 2014q1/bin/../lib/gcc/arm-none-eabi/4.8.3/../../../../arm-none-eabi/lib/armv7e-m\libg.a(lib_a-svfprintf.o) (__aeabi_uldivmod)
c:/program files (x86)/gnu tools arm embedded/4.8 2014q1/bin/../lib/gcc/arm-none-eabi/4.8.3/armv7e-m\libgcc.a(bpabi.o)
                              c:/program files (x86)/gnu tools arm embedded/4.8 2014q1/bin/../lib/gcc/arm-none-eabi/4.8.3/armv7e-m\libgcc.a(_aeabi_uldivmod.o) (__gnu_uldivmod_helper)
c:/program files (x86)/gnu tools arm embedded/4.8 2014q1/bin/../lib/gcc/arm-none-eabi/4.8.3/armv7e-m\libgcc.a(_dvmd_tls.o)
                              c:/program files (x86)/gnu tools arm embedded/4.8 2014q1/bin/../lib/gcc/arm-none-eabi/4.8.3/armv7e-m\libgcc.a(_aeabi_uldivmod.o) (__aeabi_ldiv0)
c:/program files (x86)/gnu tools arm embedded/4.8 2014q1/bin/../lib/gcc/arm-none-eabi/4.8.3/armv7e-m\libgcc.a(_divdi3.o)
                              c:/program files (x86)/gnu tools arm embedded/4.8 2014q1/bin/../lib/gcc/arm-none-eabi/4.8.3/armv7e-m\libgcc.a(bpabi.o) (__divdi3)
c:/program files (x86)/gnu tools arm embedded/4.8 2014q1/bin/../lib/gcc/arm-none-eabi/4.8.3/armv7e-m\libgcc.a(_udivdi3.o)
                              c:/program files (x86)/gnu tools arm embedded/4.8 2014q1/bin/../lib/gcc/arm-none-eabi/4.8.3/armv7e-m\libgcc.a(bpabi.o) (__udivdi3)

Allocating common symbols
Common symbol       size              file

netif               0x44              ..\obj\netconf.o
netif_list          0x4               ..\obj\netif.o
RX_Frame_Descriptor
                    0xc               ..\obj\stm32f4x7_eth.o
ADC_Page_SSI_Handler
                    0x4               ..\obj\httpd_cgi_ssi.o
tcp_active_pcbs     0x4               ..\obj\tcp.o
udp_pcbs            0x4               ..\obj\udp.o
errno               0x4               c:/program files (x86)/gnu tools arm embedded/4.8 2014q1/bin/../lib/gcc/arm-none-eabi/4.8.3/../../../../arm-none-eabi/lib/armv7e-m\libg.a(lib_a-reent.o)
current_netif       0x4               ..\obj\ip.o
tcp_ticks           0x4               ..\obj\tcp.o
tcp_listen_pcbs     0x4               ..\obj\tcp.o
DMARxDescToGet      0x4               ..\obj\stm32f4x7_eth.o
DMATxDescToSet      0x4               ..\obj\stm32f4x7_eth.o
tcp_tmp_pcb         0x4               ..\obj\tcp.o
tcp_input_pcb       0x4               ..\obj\tcp_in.o
DMATxDscrTab        0xa0              ..\obj\stm32f4x7_eth.o
current_header      0x4               ..\obj\ip.o
Rx_Buff             0x1dc4            ..\obj\stm32f4x7_eth.o
tcp_bound_pcbs      0x4               ..\obj\tcp.o
Frame_Rx_index      0x4               ..\obj\stm32f4x7_eth.o
fs_memory           0xf0              ..\obj\fs.o
DMA_RX_FRAME_infos  0x4               ..\obj\stm32f4x7_eth.o
DMARxDscrTab        0xa0              ..\obj\stm32f4x7_eth.o
tcp_tw_pcbs         0x4               ..\obj\tcp.o
netif_default       0x4               ..\obj\netif.o
NVIC_InitStructure  0x4               ..\obj\stm32f4_discovery.o
timingdelay         0x4               ..\obj\main.o
CGI_TAB             0x8               ..\obj\httpd_cgi_ssi.o
Tx_Buff             0x1dc4            ..\obj\stm32f4x7_eth.o

Discarded input sections

 .text          0x00000000        0x0 ..\obj\stm32f4xx_syscfg.o
 .data          0x00000000        0x0 ..\obj\stm32f4xx_syscfg.o
 .bss           0x00000000        0x0 ..\obj\stm32f4xx_syscfg.o
 .text.SYSCFG_DeInit
                0x00000000       0x1c ..\obj\stm32f4xx_syscfg.o
 .text.SYSCFG_MemoryRemapConfig
                0x00000000       0x20 ..\obj\stm32f4xx_syscfg.o
 .text.SYSCFG_EXTILineConfig
                0x00000000       0x7c ..\obj\stm32f4xx_syscfg.o
 .text.SYSCFG_CompensationCellCmd
                0x00000000       0x20 ..\obj\stm32f4xx_syscfg.o
 .text.SYSCFG_GetCompensationCellStatus
                0x00000000       0x34 ..\obj\stm32f4xx_syscfg.o
 .text          0x00000000        0x0 ..\obj\mem.o
 .data          0x00000000        0x0 ..\obj\mem.o
 .text.mem_calloc
                0x00000000       0x44 ..\obj\mem.o
 .text          0x00000000        0x0 ..\obj\stm32f4xx_sdio.o
 .data          0x00000000        0x0 ..\obj\stm32f4xx_sdio.o
 .bss           0x00000000        0x0 ..\obj\stm32f4xx_sdio.o
 .text.SDIO_DeInit
                0x00000000       0x1c ..\obj\stm32f4xx_sdio.o
 .text.SDIO_Init
                0x00000000       0x5c ..\obj\stm32f4xx_sdio.o
 .text.SDIO_StructInit
                0x00000000       0x38 ..\obj\stm32f4xx_sdio.o
 .text.SDIO_ClockCmd
                0x00000000       0x20 ..\obj\stm32f4xx_sdio.o
 .text.SDIO_SetPowerState
                0x00000000       0x1c ..\obj\stm32f4xx_sdio.o
 .text.SDIO_GetPowerState
                0x00000000       0x1c ..\obj\stm32f4xx_sdio.o
 .text.SDIO_SendCommand
                0x00000000       0x58 ..\obj\stm32f4xx_sdio.o
 .text.SDIO_CmdStructInit
                0x00000000       0x30 ..\obj\stm32f4xx_sdio.o
 .text.SDIO_GetCommandResponse
                0x00000000       0x18 ..\obj\stm32f4xx_sdio.o
 .text.SDIO_GetResponse
                0x00000000       0x28 ..\obj\stm32f4xx_sdio.o
 .text.SDIO_DataConfig
                0x00000000       0x5c ..\obj\stm32f4xx_sdio.o
 .text.SDIO_DataStructInit
                0x00000000       0x38 ..\obj\stm32f4xx_sdio.o
 .text.SDIO_GetDataCounter
                0x00000000       0x18 ..\obj\stm32f4xx_sdio.o
 .text.SDIO_ReadData
                0x00000000       0x18 ..\obj\stm32f4xx_sdio.o
 .text.SDIO_WriteData
                0x00000000       0x20 ..\obj\stm32f4xx_sdio.o
 .text.SDIO_GetFIFOCount
                0x00000000       0x18 ..\obj\stm32f4xx_sdio.o
 .text.SDIO_StartSDIOReadWait
                0x00000000       0x20 ..\obj\stm32f4xx_sdio.o
 .text.SDIO_StopSDIOReadWait
                0x00000000       0x20 ..\obj\stm32f4xx_sdio.o
 .text.SDIO_SetSDIOReadWaitMode
                0x00000000       0x1c ..\obj\stm32f4xx_sdio.o
 .text.SDIO_SetSDIOOperation
                0x00000000       0x20 ..\obj\stm32f4xx_sdio.o
 .text.SDIO_SendSDIOSuspendCmd
                0x00000000       0x20 ..\obj\stm32f4xx_sdio.o
 .text.SDIO_CommandCompletionCmd
                0x00000000       0x20 ..\obj\stm32f4xx_sdio.o
 .text.SDIO_CEATAITCmd
                0x00000000       0x2c ..\obj\stm32f4xx_sdio.o
 .text.SDIO_SendCEATACmd
                0x00000000       0x20 ..\obj\stm32f4xx_sdio.o
 .text.SDIO_DMACmd
                0x00000000       0x20 ..\obj\stm32f4xx_sdio.o
 .text.SDIO_ITConfig
                0x00000000       0x3c ..\obj\stm32f4xx_sdio.o
 .text.SDIO_GetFlagStatus
                0x00000000       0x34 ..\obj\stm32f4xx_sdio.o
 .text.SDIO_ClearFlag
                0x00000000       0x1c ..\obj\stm32f4xx_sdio.o
 .text.SDIO_GetITStatus
                0x00000000       0x34 ..\obj\stm32f4xx_sdio.o
 .text.SDIO_ClearITPendingBit
                0x00000000       0x1c ..\obj\stm32f4xx_sdio.o
 .debug_info    0x00000000      0x7f5 ..\obj\stm32f4xx_sdio.o
 .debug_abbrev  0x00000000      0x177 ..\obj\stm32f4xx_sdio.o
 .debug_aranges
                0x00000000      0x108 ..\obj\stm32f4xx_sdio.o
 .debug_ranges  0x00000000       0xf8 ..\obj\stm32f4xx_sdio.o
 .debug_line    0x00000000      0x473 ..\obj\stm32f4xx_sdio.o
 .debug_str     0x00000000      0x648 ..\obj\stm32f4xx_sdio.o
 .comment       0x00000000       0x71 ..\obj\stm32f4xx_sdio.o
 .ARM.attributes
                0x00000000       0x33 ..\obj\stm32f4xx_sdio.o
 .debug_frame   0x00000000      0x344 ..\obj\stm32f4xx_sdio.o
 .text          0x00000000        0x0 ..\obj\tcp.o
 .text.tcp_connect
                0x00000000      0x174 ..\obj\tcp.o
 .text.tcp_debug_state_str
                0x00000000       0x24 ..\obj\tcp.o
 .text          0x00000000        0x0 ..\obj\err.o
 .data          0x00000000        0x0 ..\obj\err.o
 .bss           0x00000000        0x0 ..\obj\err.o
 .debug_info    0x00000000       0x72 ..\obj\err.o
 .debug_abbrev  0x00000000       0x26 ..\obj\err.o
 .debug_aranges
                0x00000000       0x18 ..\obj\err.o
 .debug_line    0x00000000       0x1d ..\obj\err.o
 .debug_str     0x00000000      0x193 ..\obj\err.o
 .comment       0x00000000       0x71 ..\obj\err.o
 .ARM.attributes
                0x00000000       0x33 ..\obj\err.o
 .text          0x00000000        0x0 ..\obj\tcp_in.o
 .data          0x00000000        0x0 ..\obj\tcp_in.o
 .text          0x00000000        0x0 ..\obj\stm32f4xx_usart.o
 .data          0x00000000        0x0 ..\obj\stm32f4xx_usart.o
 .bss           0x00000000        0x0 ..\obj\stm32f4xx_usart.o
 .text.USART_DeInit
                0x00000000       0xd0 ..\obj\stm32f4xx_usart.o
 .text.USART_Init
                0x00000000      0x174 ..\obj\stm32f4xx_usart.o
 .text.USART_StructInit
                0x00000000       0x38 ..\obj\stm32f4xx_usart.o
 .text.USART_ClockInit
                0x00000000       0x54 ..\obj\stm32f4xx_usart.o
 .text.USART_ClockStructInit
                0x00000000       0x2c ..\obj\stm32f4xx_usart.o
 .text.USART_Cmd
                0x00000000       0x40 ..\obj\stm32f4xx_usart.o
 .text.USART_SetPrescaler
                0x00000000       0x38 ..\obj\stm32f4xx_usart.o
 .text.USART_OverSampling8Cmd
                0x00000000       0x44 ..\obj\stm32f4xx_usart.o
 .text.USART_OneBitMethodCmd
                0x00000000       0x40 ..\obj\stm32f4xx_usart.o
 .text.USART_SendData
                0x00000000       0x24 ..\obj\stm32f4xx_usart.o
 .text.USART_ReceiveData
                0x00000000       0x20 ..\obj\stm32f4xx_usart.o
 .text.USART_SetAddress
                0x00000000       0x38 ..\obj\stm32f4xx_usart.o
 .text.USART_ReceiverWakeUpCmd
                0x00000000       0x40 ..\obj\stm32f4xx_usart.o
 .text.USART_WakeUpConfig
                0x00000000       0x38 ..\obj\stm32f4xx_usart.o
 .text.USART_LINBreakDetectLengthConfig
                0x00000000       0x38 ..\obj\stm32f4xx_usart.o
 .text.USART_LINCmd
                0x00000000       0x40 ..\obj\stm32f4xx_usart.o
 .text.USART_SendBreak
                0x00000000       0x24 ..\obj\stm32f4xx_usart.o
 .text.USART_HalfDuplexCmd
                0x00000000       0x40 ..\obj\stm32f4xx_usart.o
 .text.USART_SetGuardTime
                0x00000000       0x3c ..\obj\stm32f4xx_usart.o
 .text.USART_SmartCardCmd
                0x00000000       0x40 ..\obj\stm32f4xx_usart.o
 .text.USART_SmartCardNACKCmd
                0x00000000       0x40 ..\obj\stm32f4xx_usart.o
 .text.USART_IrDAConfig
                0x00000000       0x38 ..\obj\stm32f4xx_usart.o
 .text.USART_IrDACmd
                0x00000000       0x40 ..\obj\stm32f4xx_usart.o
 .text.USART_DMACmd
                0x00000000       0x48 ..\obj\stm32f4xx_usart.o
 .text.USART_ITConfig
                0x00000000       0x90 ..\obj\stm32f4xx_usart.o
 .text.USART_GetFlagStatus
                0x00000000       0x38 ..\obj\stm32f4xx_usart.o
 .text.USART_ClearFlag
                0x00000000       0x20 ..\obj\stm32f4xx_usart.o
 .text.USART_GetITStatus
                0x00000000       0xb0 ..\obj\stm32f4xx_usart.o
 .text.USART_ClearITPendingBit
                0x00000000       0x38 ..\obj\stm32f4xx_usart.o
 .debug_info    0x00000000      0x9c2 ..\obj\stm32f4xx_usart.o
 .debug_abbrev  0x00000000      0x155 ..\obj\stm32f4xx_usart.o
 .debug_aranges
                0x00000000      0x100 ..\obj\stm32f4xx_usart.o
 .debug_ranges  0x00000000       0xf0 ..\obj\stm32f4xx_usart.o
 .debug_line    0x00000000      0x4d1 ..\obj\stm32f4xx_usart.o
 .debug_str     0x00000000      0x697 ..\obj\stm32f4xx_usart.o
 .comment       0x00000000       0x71 ..\obj\stm32f4xx_usart.o
 .ARM.attributes
                0x00000000       0x33 ..\obj\stm32f4xx_usart.o
 .debug_frame   0x00000000      0x344 ..\obj\stm32f4xx_usart.o
 .text          0x00000000        0x0 ..\obj\stm32f4xx_pwr.o
 .data          0x00000000        0x0 ..\obj\stm32f4xx_pwr.o
 .bss           0x00000000        0x0 ..\obj\stm32f4xx_pwr.o
 .text.PWR_DeInit
                0x00000000       0x1c ..\obj\stm32f4xx_pwr.o
 .text.PWR_BackupAccessCmd
                0x00000000       0x20 ..\obj\stm32f4xx_pwr.o
 .text.PWR_PVDLevelConfig
                0x00000000       0x38 ..\obj\stm32f4xx_pwr.o
 .text.PWR_PVDCmd
                0x00000000       0x20 ..\obj\stm32f4xx_pwr.o
 .text.PWR_WakeUpPinCmd
                0x00000000       0x20 ..\obj\stm32f4xx_pwr.o
 .text.PWR_BackupRegulatorCmd
                0x00000000       0x20 ..\obj\stm32f4xx_pwr.o
 .text.PWR_MainRegulatorModeConfig
                0x00000000       0x38 ..\obj\stm32f4xx_pwr.o
 .text.PWR_FlashPowerDownCmd
                0x00000000       0x20 ..\obj\stm32f4xx_pwr.o
 .text.PWR_EnterSTOPMode
                0x00000000       0x64 ..\obj\stm32f4xx_pwr.o
 .text.PWR_EnterSTANDBYMode
                0x00000000       0x3c ..\obj\stm32f4xx_pwr.o
 .text.PWR_GetFlagStatus
                0x00000000       0x34 ..\obj\stm32f4xx_pwr.o
 .text.PWR_ClearFlag
                0x00000000       0x24 ..\obj\stm32f4xx_pwr.o
 .debug_info    0x00000000      0x4fc ..\obj\stm32f4xx_pwr.o
 .debug_abbrev  0x00000000      0x17f ..\obj\stm32f4xx_pwr.o
 .debug_aranges
                0x00000000       0x78 ..\obj\stm32f4xx_pwr.o
 .debug_ranges  0x00000000       0x68 ..\obj\stm32f4xx_pwr.o
 .debug_line    0x00000000      0x2dc ..\obj\stm32f4xx_pwr.o
 .debug_str     0x00000000      0x399 ..\obj\stm32f4xx_pwr.o
 .comment       0x00000000       0x71 ..\obj\stm32f4xx_pwr.o
 .ARM.attributes
                0x00000000       0x33 ..\obj\stm32f4xx_pwr.o
 .debug_frame   0x00000000      0x15c ..\obj\stm32f4xx_pwr.o
 .text          0x00000000        0x0 ..\obj\slipif.o
 .data          0x00000000        0x0 ..\obj\slipif.o
 .bss           0x00000000        0x0 ..\obj\slipif.o
 .debug_info    0x00000000       0x72 ..\obj\slipif.o
 .debug_abbrev  0x00000000       0x26 ..\obj\slipif.o
 .debug_aranges
                0x00000000       0x18 ..\obj\slipif.o
 .debug_line    0x00000000       0x1d ..\obj\slipif.o
 .debug_str     0x00000000      0x198 ..\obj\slipif.o
 .comment       0x00000000       0x71 ..\obj\slipif.o
 .ARM.attributes
                0x00000000       0x33 ..\obj\slipif.o
 .text          0x00000000        0x0 ..\obj\memp.o
 .data          0x00000000        0x0 ..\obj\memp.o
 .text          0x00000000        0x0 ..\obj\autoip.o
 .data          0x00000000        0x0 ..\obj\autoip.o
 .bss           0x00000000        0x0 ..\obj\autoip.o
 .text.autoip_init
                0x00000000        0xc ..\obj\autoip.o
 .text.autoip_arp_probe
                0x00000000       0x44 ..\obj\autoip.o
 .text.autoip_bind
                0x00000000       0x5c ..\obj\autoip.o
 .text.autoip_network_changed
                0x00000000       0x2c ..\obj\autoip.o
 .text.autoip_stop
                0x00000000       0x24 ..\obj\autoip.o
 .text.autoip_tmr
                0x00000000      0x16c ..\obj\autoip.o
 .text          0x00000000        0x0 ..\obj\ip_frag.o
 .data          0x00000000        0x0 ..\obj\ip_frag.o
 .text.ip_reass_tmr
                0x00000000       0x54 ..\obj\ip_frag.o
 .text          0x00000000        0x0 ..\obj\netbuf.o
 .data          0x00000000        0x0 ..\obj\netbuf.o
 .bss           0x00000000        0x0 ..\obj\netbuf.o
 .debug_info    0x00000000       0x72 ..\obj\netbuf.o
 .debug_abbrev  0x00000000       0x26 ..\obj\netbuf.o
 .debug_aranges
                0x00000000       0x18 ..\obj\netbuf.o
 .debug_line    0x00000000       0x1d ..\obj\netbuf.o
 .debug_str     0x00000000      0x196 ..\obj\netbuf.o
 .comment       0x00000000       0x71 ..\obj\netbuf.o
 .ARM.attributes
                0x00000000       0x33 ..\obj\netbuf.o
 .text          0x00000000        0x0 ..\obj\tcpip.o
 .data          0x00000000        0x0 ..\obj\tcpip.o
 .bss           0x00000000        0x0 ..\obj\tcpip.o
 .debug_info    0x00000000       0x72 ..\obj\tcpip.o
 .debug_abbrev  0x00000000       0x26 ..\obj\tcpip.o
 .debug_aranges
                0x00000000       0x18 ..\obj\tcpip.o
 .debug_line    0x00000000       0x1d ..\obj\tcpip.o
 .debug_str     0x00000000      0x195 ..\obj\tcpip.o
 .comment       0x00000000       0x71 ..\obj\tcpip.o
 .ARM.attributes
                0x00000000       0x33 ..\obj\tcpip.o
 .text          0x00000000        0x0 ..\obj\stm32f4xx_dac.o
 .data          0x00000000        0x0 ..\obj\stm32f4xx_dac.o
 .bss           0x00000000        0x0 ..\obj\stm32f4xx_dac.o
 .text.DAC_DeInit
                0x00000000       0x1c ..\obj\stm32f4xx_dac.o
 .text.DAC_Init
                0x00000000       0x64 ..\obj\stm32f4xx_dac.o
 .text.DAC_StructInit
                0x00000000       0x2c ..\obj\stm32f4xx_dac.o
 .text.DAC_Cmd  0x00000000       0x48 ..\obj\stm32f4xx_dac.o
 .text.DAC_SoftwareTriggerCmd
                0x00000000       0x4c ..\obj\stm32f4xx_dac.o
 .text.DAC_DualSoftwareTriggerCmd
                0x00000000       0x38 ..\obj\stm32f4xx_dac.o
 .text.DAC_WaveGenerationCmd
                0x00000000       0x4c ..\obj\stm32f4xx_dac.o
 .text.DAC_SetChannel1Data
                0x00000000       0x34 ..\obj\stm32f4xx_dac.o
 .text.DAC_SetChannel2Data
                0x00000000       0x34 ..\obj\stm32f4xx_dac.o
 .text.DAC_SetDualChannelData
                0x00000000       0x58 ..\obj\stm32f4xx_dac.o
 .text.DAC_GetDataOutputValue
                0x00000000       0x34 ..\obj\stm32f4xx_dac.o
 .text.DAC_DMACmd
                0x00000000       0x4c ..\obj\stm32f4xx_dac.o
 .text.DAC_ITConfig
                0x00000000       0x4c ..\obj\stm32f4xx_dac.o
 .text.DAC_GetFlagStatus
                0x00000000       0x3c ..\obj\stm32f4xx_dac.o
 .text.DAC_ClearFlag
                0x00000000       0x24 ..\obj\stm32f4xx_dac.o
 .text.DAC_GetITStatus
                0x00000000       0x58 ..\obj\stm32f4xx_dac.o
 .text.DAC_ClearITPendingBit
                0x00000000       0x24 ..\obj\stm32f4xx_dac.o
 .debug_info    0x00000000      0x63a ..\obj\stm32f4xx_dac.o
 .debug_abbrev  0x00000000      0x17c ..\obj\stm32f4xx_dac.o
 .debug_aranges
                0x00000000       0xa0 ..\obj\stm32f4xx_dac.o
 .debug_ranges  0x00000000       0x90 ..\obj\stm32f4xx_dac.o
 .debug_line    0x00000000      0x387 ..\obj\stm32f4xx_dac.o
 .debug_str     0x00000000      0x45b ..\obj\stm32f4xx_dac.o
 .comment       0x00000000       0x71 ..\obj\stm32f4xx_dac.o
 .ARM.attributes
                0x00000000       0x33 ..\obj\stm32f4xx_dac.o
 .debug_frame   0x00000000      0x1ec ..\obj\stm32f4xx_dac.o
 .text          0x00000000        0x0 ..\obj\fs.o
 .data          0x00000000        0x0 ..\obj\fs.o
 .bss           0x00000000        0x0 ..\obj\fs.o
 .text          0x00000000        0x0 ..\obj\startup_stm32f4xx.o
 .data          0x00000000        0x0 ..\obj\startup_stm32f4xx.o
 .bss           0x00000000        0x0 ..\obj\startup_stm32f4xx.o
 .text          0x00000000        0x0 ..\obj\stm32f4_discovery.o
 .bss           0x00000000        0x0 ..\obj\stm32f4_discovery.o
 .text.STM_EVAL_LEDToggle
                0x00000000       0x3c ..\obj\stm32f4_discovery.o
 .text.STM_EVAL_PBInit
                0x00000000       0x94 ..\obj\stm32f4_discovery.o
 .text.STM_EVAL_PBGetState
                0x00000000       0x2c ..\obj\stm32f4_discovery.o
 .text.STM_EVAL_COMInit
                0x00000000      0x124 ..\obj\stm32f4_discovery.o
 .text.SD_LowLevel_DeInit
                0x00000000       0xa0 ..\obj\stm32f4_discovery.o
 .text.SD_LowLevel_Init
                0x00000000       0xc8 ..\obj\stm32f4_discovery.o
 .text.SD_LowLevel_DMA_TxConfig
                0x00000000       0xa0 ..\obj\stm32f4_discovery.o
 .text.SD_LowLevel_DMA_RxConfig
                0x00000000       0xa0 ..\obj\stm32f4_discovery.o
 COMMON         0x00000000        0x4 ..\obj\stm32f4_discovery.o
 .text          0x00000000        0x0 ..\obj\stm32f4x7_eth.o
 .data          0x00000000        0x0 ..\obj\stm32f4x7_eth.o
 .bss           0x00000000        0x0 ..\obj\stm32f4x7_eth.o
 .text.ETH_GetFlowControlBusyStatus
                0x00000000       0x34 ..\obj\stm32f4x7_eth.o
 .text.ETH_InitiatePauseControlFrame
                0x00000000       0x1c ..\obj\stm32f4x7_eth.o
 .text.ETH_BackPressureActivationCmd
                0x00000000       0x38 ..\obj\stm32f4x7_eth.o
 .text.ETH_GetMACFlagStatus
                0x00000000       0x34 ..\obj\stm32f4x7_eth.o
 .text.ETH_GetMACITStatus
                0x00000000       0x34 ..\obj\stm32f4x7_eth.o
 .text.ETH_MACITConfig
                0x00000000       0x3c ..\obj\stm32f4x7_eth.o
 .text.ETH_GetMACAddress
                0x00000000       0x74 ..\obj\stm32f4x7_eth.o
 .text.ETH_MACAddressPerfectFilterCmd
                0x00000000       0x50 ..\obj\stm32f4x7_eth.o
 .text.ETH_MACAddressFilterConfig
                0x00000000       0x4c ..\obj\stm32f4x7_eth.o
 .text.ETH_MACAddressMaskBytesFilterConfig
                0x00000000       0x44 ..\obj\stm32f4x7_eth.o
 .text.ETH_Get_Received_Frame_interrupt
                0x00000000      0x13c ..\obj\stm32f4x7_eth.o
 .text.ETH_GetDMATxDescFlagStatus
                0x00000000       0x34 ..\obj\stm32f4x7_eth.o
 .text.ETH_GetDMATxDescCollisionCount
                0x00000000       0x20 ..\obj\stm32f4x7_eth.o
 .text.ETH_SetDMATxDescOwnBit
                0x00000000       0x20 ..\obj\stm32f4x7_eth.o
 .text.ETH_DMATxDescTransmitITConfig
                0x00000000       0x38 ..\obj\stm32f4x7_eth.o
 .text.ETH_DMATxDescFrameSegmentConfig
                0x00000000       0x20 ..\obj\stm32f4x7_eth.o
 .text.ETH_DMATxDescCRCCmd
                0x00000000       0x38 ..\obj\stm32f4x7_eth.o
 .text.ETH_DMATxDescSecondAddressChainedCmd
                0x00000000       0x38 ..\obj\stm32f4x7_eth.o
 .text.ETH_DMATxDescShortFramePaddingCmd
                0x00000000       0x38 ..\obj\stm32f4x7_eth.o
 .text.ETH_DMATxDescBufferSizeConfig
                0x00000000       0x28 ..\obj\stm32f4x7_eth.o
 .text.ETH_GetDMARxDescFlagStatus
                0x00000000       0x34 ..\obj\stm32f4x7_eth.o
 .text.ETH_GetDMAPTPRxDescExtendedFlagStatus
                0x00000000       0x34 ..\obj\stm32f4x7_eth.o
 .text.ETH_SetDMARxDescOwnBit
                0x00000000       0x20 ..\obj\stm32f4x7_eth.o
 .text.ETH_GetDMARxDescFrameLength
                0x00000000       0x24 ..\obj\stm32f4x7_eth.o
 .text.ETH_DMARxDescReceiveITConfig
                0x00000000       0x38 ..\obj\stm32f4x7_eth.o
 .text.ETH_GetDMARxDescBufferSize
                0x00000000       0x34 ..\obj\stm32f4x7_eth.o
 .text.ETH_GetRxPktSize
                0x00000000       0x40 ..\obj\stm32f4x7_eth.o
 .text.ETH_EnhancedDescriptorCmd
                0x00000000       0x48 ..\obj\stm32f4x7_eth.o
 .text.ETH_GetDMAFlagStatus
                0x00000000       0x3c ..\obj\stm32f4x7_eth.o
 .text.ETH_DMAClearFlag
                0x00000000       0x24 ..\obj\stm32f4x7_eth.o
 .text.ETH_DMAITConfig
                0x00000000       0x54 ..\obj\stm32f4x7_eth.o
 .text.ETH_GetDMAITStatus
                0x00000000       0x3c ..\obj\stm32f4x7_eth.o
 .text.ETH_DMAClearITPendingBit
                0x00000000       0x24 ..\obj\stm32f4x7_eth.o
 .text.ETH_GetTransmitProcessState
                0x00000000       0x20 ..\obj\stm32f4x7_eth.o
 .text.ETH_GetReceiveProcessState
                0x00000000       0x20 ..\obj\stm32f4x7_eth.o
 .text.ETH_GetFlushTransmitFIFOStatus
                0x00000000       0x38 ..\obj\stm32f4x7_eth.o
 .text.ETH_GetDMAOverflowStatus
                0x00000000       0x38 ..\obj\stm32f4x7_eth.o
 .text.ETH_GetRxOverflowMissedFrameCounter
                0x00000000       0x24 ..\obj\stm32f4x7_eth.o
 .text.ETH_GetBufferUnavailableMissedFrameCounter
                0x00000000       0x1c ..\obj\stm32f4x7_eth.o
 .text.ETH_GetCurrentTxDescStartAddress
                0x00000000       0x1c ..\obj\stm32f4x7_eth.o
 .text.ETH_GetCurrentRxDescStartAddress
                0x00000000       0x1c ..\obj\stm32f4x7_eth.o
 .text.ETH_GetCurrentTxBufferAddress
                0x00000000       0x1c ..\obj\stm32f4x7_eth.o
 .text.ETH_GetCurrentRxBufferAddress
                0x00000000       0x1c ..\obj\stm32f4x7_eth.o
 .text.ETH_ResumeDMATransmission
                0x00000000       0x1c ..\obj\stm32f4x7_eth.o
 .text.ETH_ResumeDMAReception
                0x00000000       0x1c ..\obj\stm32f4x7_eth.o
 .text.ETH_SetReceiveWatchdogTimer
                0x00000000       0x24 ..\obj\stm32f4x7_eth.o
 .text.ETH_PHYLoopBackCmd
                0x00000000       0x5c ..\obj\stm32f4x7_eth.o
 .text.ETH_ResetWakeUpFrameFilterRegisterPointer
                0x00000000       0x1c ..\obj\stm32f4x7_eth.o
 .text.ETH_SetWakeUpFrameFilterRegister
                0x00000000       0x3c ..\obj\stm32f4x7_eth.o
 .text.ETH_GlobalUnicastWakeUpCmd
                0x00000000       0x38 ..\obj\stm32f4x7_eth.o
 .text.ETH_GetPMTFlagStatus
                0x00000000       0x34 ..\obj\stm32f4x7_eth.o
 .text.ETH_WakeUpFrameDetectionCmd
                0x00000000       0x38 ..\obj\stm32f4x7_eth.o
 .text.ETH_MagicPacketDetectionCmd
                0x00000000       0x38 ..\obj\stm32f4x7_eth.o
 .text.ETH_PowerDownCmd
                0x00000000       0x38 ..\obj\stm32f4x7_eth.o
 .text.ETH_MMCCounterFullPreset
                0x00000000       0x20 ..\obj\stm32f4x7_eth.o
 .text.ETH_MMCCounterHalfPreset
                0x00000000       0x30 ..\obj\stm32f4x7_eth.o
 .text.ETH_MMCCounterFreezeCmd
                0x00000000       0x40 ..\obj\stm32f4x7_eth.o
 .text.ETH_MMCResetOnReadCmd
                0x00000000       0x40 ..\obj\stm32f4x7_eth.o
 .text.ETH_MMCCounterRolloverCmd
                0x00000000       0x40 ..\obj\stm32f4x7_eth.o
 .text.ETH_MMCCountersReset
                0x00000000       0x20 ..\obj\stm32f4x7_eth.o
 .text.ETH_MMCITConfig
                0x00000000       0x84 ..\obj\stm32f4x7_eth.o
 .text.ETH_GetMMCITStatus
                0x00000000       0x78 ..\obj\stm32f4x7_eth.o
 .text.ETH_GetMMCRegister
                0x00000000       0x20 ..\obj\stm32f4x7_eth.o
 .text          0x00000000        0x0 ..\obj\sys.o
 .data          0x00000000        0x0 ..\obj\sys.o
 .bss           0x00000000        0x0 ..\obj\sys.o
 .debug_info    0x00000000       0x72 ..\obj\sys.o
 .debug_abbrev  0x00000000       0x26 ..\obj\sys.o
 .debug_aranges
                0x00000000       0x18 ..\obj\sys.o
 .debug_line    0x00000000       0x1d ..\obj\sys.o
 .debug_str     0x00000000      0x194 ..\obj\sys.o
 .comment       0x00000000       0x71 ..\obj\sys.o
 .ARM.attributes
                0x00000000       0x33 ..\obj\sys.o
 .text          0x00000000        0x0 ..\obj\ip_addr.o
 .data          0x00000000        0x0 ..\obj\ip_addr.o
 .bss           0x00000000        0x0 ..\obj\ip_addr.o
 .text          0x00000000        0x0 ..\obj\inet_chksum.o
 .data          0x00000000        0x0 ..\obj\inet_chksum.o
 .bss           0x00000000        0x0 ..\obj\inet_chksum.o
 .text.inet_chksum_pseudo
                0x00000000      0x108 ..\obj\inet_chksum.o
 .text          0x00000000        0x0 ..\obj\main.o
 .data          0x00000000        0x0 ..\obj\main.o
 .text.Delay    0x00000000       0x34 ..\obj\main.o
 COMMON         0x00000000        0x4 ..\obj\main.o
 .text          0x00000000        0x0 ..\obj\stm32f4xx_rcc.o
 .bss           0x00000000        0x0 ..\obj\stm32f4xx_rcc.o
 .text.RCC_DeInit
                0x00000000       0x50 ..\obj\stm32f4xx_rcc.o
 .text.RCC_HSEConfig
                0x00000000       0x24 ..\obj\stm32f4xx_rcc.o
 .text.RCC_WaitForHSEStartUp
                0x00000000       0x50 ..\obj\stm32f4xx_rcc.o
 .text.RCC_AdjustHSICalibrationValue
                0x00000000       0x3c ..\obj\stm32f4xx_rcc.o
 .text.RCC_HSICmd
                0x00000000       0x20 ..\obj\stm32f4xx_rcc.o
 .text.RCC_LSEConfig
                0x00000000       0x40 ..\obj\stm32f4xx_rcc.o
 .text.RCC_LSICmd
                0x00000000       0x20 ..\obj\stm32f4xx_rcc.o
 .text.RCC_PLLConfig
                0x00000000       0x3c ..\obj\stm32f4xx_rcc.o
 .text.RCC_PLLCmd
                0x00000000       0x20 ..\obj\stm32f4xx_rcc.o
 .text.RCC_PLLI2SConfig
                0x00000000       0x28 ..\obj\stm32f4xx_rcc.o
 .text.RCC_PLLI2SCmd
                0x00000000       0x20 ..\obj\stm32f4xx_rcc.o
 .text.RCC_ClockSecuritySystemCmd
                0x00000000       0x20 ..\obj\stm32f4xx_rcc.o
 .text.RCC_MCO1Config
                0x00000000       0x3c ..\obj\stm32f4xx_rcc.o
 .text.RCC_MCO2Config
                0x00000000       0x3c ..\obj\stm32f4xx_rcc.o
 .text.RCC_SYSCLKConfig
                0x00000000       0x38 ..\obj\stm32f4xx_rcc.o
 .text.RCC_GetSYSCLKSource
                0x00000000       0x20 ..\obj\stm32f4xx_rcc.o
 .text.RCC_HCLKConfig
                0x00000000       0x38 ..\obj\stm32f4xx_rcc.o
 .text.RCC_PCLK1Config
                0x00000000       0x38 ..\obj\stm32f4xx_rcc.o
 .text.RCC_PCLK2Config
                0x00000000       0x38 ..\obj\stm32f4xx_rcc.o
 .text.RCC_RTCCLKConfig
                0x00000000       0x5c ..\obj\stm32f4xx_rcc.o
 .text.RCC_RTCCLKCmd
                0x00000000       0x20 ..\obj\stm32f4xx_rcc.o
 .text.RCC_BackupResetCmd
                0x00000000       0x20 ..\obj\stm32f4xx_rcc.o
 .text.RCC_I2SCLKConfig
                0x00000000       0x1c ..\obj\stm32f4xx_rcc.o
 .text.RCC_AHB2PeriphClockCmd
                0x00000000       0x3c ..\obj\stm32f4xx_rcc.o
 .text.RCC_AHB3PeriphClockCmd
                0x00000000       0x3c ..\obj\stm32f4xx_rcc.o
 .text.RCC_APB1PeriphClockCmd
                0x00000000       0x3c ..\obj\stm32f4xx_rcc.o
 .text.RCC_AHB2PeriphResetCmd
                0x00000000       0x3c ..\obj\stm32f4xx_rcc.o
 .text.RCC_AHB3PeriphResetCmd
                0x00000000       0x3c ..\obj\stm32f4xx_rcc.o
 .text.RCC_APB1PeriphResetCmd
                0x00000000       0x3c ..\obj\stm32f4xx_rcc.o
 .text.RCC_APB2PeriphResetCmd
                0x00000000       0x3c ..\obj\stm32f4xx_rcc.o
 .text.RCC_AHB1PeriphClockLPModeCmd
                0x00000000       0x3c ..\obj\stm32f4xx_rcc.o
 .text.RCC_AHB2PeriphClockLPModeCmd
                0x00000000       0x3c ..\obj\stm32f4xx_rcc.o
 .text.RCC_AHB3PeriphClockLPModeCmd
                0x00000000       0x3c ..\obj\stm32f4xx_rcc.o
 .text.RCC_APB1PeriphClockLPModeCmd
                0x00000000       0x3c ..\obj\stm32f4xx_rcc.o
 .text.RCC_APB2PeriphClockLPModeCmd
                0x00000000       0x3c ..\obj\stm32f4xx_rcc.o
 .text.RCC_ITConfig
                0x00000000       0x48 ..\obj\stm32f4xx_rcc.o
 .text.RCC_GetFlagStatus
                0x00000000       0x74 ..\obj\stm32f4xx_rcc.o
 .text.RCC_ClearFlag
                0x00000000       0x1c ..\obj\stm32f4xx_rcc.o
 .text.RCC_GetITStatus
                0x00000000       0x38 ..\obj\stm32f4xx_rcc.o
 .text.RCC_ClearITPendingBit
                0x00000000       0x20 ..\obj\stm32f4xx_rcc.o
 .text          0x00000000        0x0 ..\obj\netconf.o
 .data          0x00000000        0x0 ..\obj\netconf.o
 .text          0x00000000        0x0 ..\obj\stm32f4xx_it.o
 .data          0x00000000        0x0 ..\obj\stm32f4xx_it.o
 .bss           0x00000000        0x0 ..\obj\stm32f4xx_it.o
 .text          0x00000000        0x0 ..\obj\netdb.o
 .data          0x00000000        0x0 ..\obj\netdb.o
 .bss           0x00000000        0x0 ..\obj\netdb.o
 .debug_info    0x00000000       0x72 ..\obj\netdb.o
 .debug_abbrev  0x00000000       0x26 ..\obj\netdb.o
 .debug_aranges
                0x00000000       0x18 ..\obj\netdb.o
 .debug_line    0x00000000       0x1d ..\obj\netdb.o
 .debug_str     0x00000000      0x195 ..\obj\netdb.o
 .comment       0x00000000       0x71 ..\obj\netdb.o
 .ARM.attributes
                0x00000000       0x33 ..\obj\netdb.o
 .text          0x00000000        0x0 ..\obj\init.o
 .data          0x00000000        0x0 ..\obj\init.o
 .bss           0x00000000        0x0 ..\obj\init.o
 .text.lwip_init
                0x00000000       0x14 ..\obj\init.o
 .debug_info    0x00000000       0x8b ..\obj\init.o
 .debug_abbrev  0x00000000       0x42 ..\obj\init.o
 .debug_aranges
                0x00000000       0x20 ..\obj\init.o
 .debug_ranges  0x00000000       0x10 ..\obj\init.o
 .debug_line    0x00000000       0x7b ..\obj\init.o
 .debug_str     0x00000000      0x19f ..\obj\init.o
 .comment       0x00000000       0x71 ..\obj\init.o
 .ARM.attributes
                0x00000000       0x33 ..\obj\init.o
 .debug_frame   0x00000000       0x2c ..\obj\init.o
 .text          0x00000000        0x0 ..\obj\stm32f4xx_adc.o
 .data          0x00000000        0x0 ..\obj\stm32f4xx_adc.o
 .bss           0x00000000        0x0 ..\obj\stm32f4xx_adc.o
 .text.ADC_DeInit
                0x00000000       0x1c ..\obj\stm32f4xx_adc.o
 .text.ADC_CommonStructInit
                0x00000000       0x2c ..\obj\stm32f4xx_adc.o
 .text.ADC_AnalogWatchdogCmd
                0x00000000       0x38 ..\obj\stm32f4xx_adc.o
 .text.ADC_AnalogWatchdogThresholdsConfig
                0x00000000       0x28 ..\obj\stm32f4xx_adc.o
 .text.ADC_AnalogWatchdogSingleChannelConfig
                0x00000000       0x38 ..\obj\stm32f4xx_adc.o
 .text.ADC_TempSensorVrefintCmd
                0x00000000       0x38 ..\obj\stm32f4xx_adc.o
 .text.ADC_VBATCmd
                0x00000000       0x38 ..\obj\stm32f4xx_adc.o
 .text.ADC_GetSoftwareStartConvStatus
                0x00000000       0x30 ..\obj\stm32f4xx_adc.o
 .text.ADC_EOCOnEachRegularChannelCmd
                0x00000000       0x38 ..\obj\stm32f4xx_adc.o
 .text.ADC_ContinuousModeCmd
                0x00000000       0x38 ..\obj\stm32f4xx_adc.o
 .text.ADC_DiscModeChannelCountConfig
                0x00000000       0x44 ..\obj\stm32f4xx_adc.o
 .text.ADC_DiscModeCmd
                0x00000000       0x38 ..\obj\stm32f4xx_adc.o
 .text.ADC_GetMultiModeConversionValue
                0x00000000       0x18 ..\obj\stm32f4xx_adc.o
 .text.ADC_DMACmd
                0x00000000       0x38 ..\obj\stm32f4xx_adc.o
 .text.ADC_DMARequestAfterLastTransferCmd
                0x00000000       0x38 ..\obj\stm32f4xx_adc.o
 .text.ADC_MultiModeDMARequestAfterLastTransferCmd
                0x00000000       0x38 ..\obj\stm32f4xx_adc.o
 .text.ADC_InjectedChannelConfig
                0x00000000      0x114 ..\obj\stm32f4xx_adc.o
 .text.ADC_InjectedSequencerLengthConfig
                0x00000000       0x44 ..\obj\stm32f4xx_adc.o
 .text.ADC_SetInjectedOffset
                0x00000000       0x30 ..\obj\stm32f4xx_adc.o
 .text.ADC_ExternalTrigInjectedConvConfig
                0x00000000       0x34 ..\obj\stm32f4xx_adc.o
 .text.ADC_ExternalTrigInjectedConvEdgeConfig
                0x00000000       0x34 ..\obj\stm32f4xx_adc.o
 .text.ADC_SoftwareStartInjectedConv
                0x00000000       0x20 ..\obj\stm32f4xx_adc.o
 .text.ADC_GetSoftwareStartInjectedConvCmdStatus
                0x00000000       0x30 ..\obj\stm32f4xx_adc.o
 .text.ADC_AutoInjectedConvCmd
                0x00000000       0x38 ..\obj\stm32f4xx_adc.o
 .text.ADC_InjectedDiscModeCmd
                0x00000000       0x38 ..\obj\stm32f4xx_adc.o
 .text.ADC_GetInjectedConversionValue
                0x00000000       0x30 ..\obj\stm32f4xx_adc.o
 .text.ADC_ITConfig
                0x00000000       0x50 ..\obj\stm32f4xx_adc.o
 .text.ADC_GetFlagStatus
                0x00000000       0x34 ..\obj\stm32f4xx_adc.o
 .text.ADC_ClearFlag
                0x00000000       0x20 ..\obj\stm32f4xx_adc.o
 .text.ADC_GetITStatus
                0x00000000       0x5c ..\obj\stm32f4xx_adc.o
 .text.ADC_ClearITPendingBit
                0x00000000       0x2c ..\obj\stm32f4xx_adc.o
 .text          0x00000000        0x0 ..\obj\stm32f4x7_eth_bsp.o
 .bss           0x00000000        0x1 ..\obj\stm32f4x7_eth_bsp.o
 .text          0x00000000        0x0 ..\obj\ethernetif.o
 .data          0x00000000        0x0 ..\obj\ethernetif.o
 .bss           0x00000000        0x0 ..\obj\ethernetif.o
 .text          0x00000000        0x0 ..\obj\etharp.o
 .data          0x00000000        0x0 ..\obj\etharp.o
 .text.etharp_find_addr
                0x00000000       0x7c ..\obj\etharp.o
 .text          0x00000000        0x0 ..\obj\httpd.o
 .text          0x00000000        0x0 ..\obj\httpd_cgi_ssi.o
 .bss           0x00000000        0x0 ..\obj\httpd_cgi_ssi.o
 .text          0x00000000        0x0 ..\obj\pbuf.o
 .data          0x00000000        0x0 ..\obj\pbuf.o
 .bss           0x00000000        0x0 ..\obj\pbuf.o
 .text.pbuf_dechain
                0x00000000       0x54 ..\obj\pbuf.o
 .text.pbuf_take
                0x00000000       0x9c ..\obj\pbuf.o
 .text.pbuf_coalesce
                0x00000000       0x4c ..\obj\pbuf.o
 .text          0x00000000        0x0 ..\obj\stats.o
 .data          0x00000000        0x0 ..\obj\stats.o
 .bss           0x00000000        0x0 ..\obj\stats.o
 .debug_info    0x00000000       0x72 ..\obj\stats.o
 .debug_abbrev  0x00000000       0x26 ..\obj\stats.o
 .debug_aranges
                0x00000000       0x18 ..\obj\stats.o
 .debug_line    0x00000000       0x1d ..\obj\stats.o
 .debug_str     0x00000000      0x196 ..\obj\stats.o
 .comment       0x00000000       0x71 ..\obj\stats.o
 .ARM.attributes
                0x00000000       0x33 ..\obj\stats.o
 .text          0x00000000        0x0 ..\obj\inet.o
 .data          0x00000000        0x0 ..\obj\inet.o
 .bss           0x00000000       0x10 ..\obj\inet.o
 .text.inet_addr
                0x00000000       0x2c ..\obj\inet.o
 .text.inet_aton
                0x00000000      0x230 ..\obj\inet.o
 .text.inet_ntoa
                0x00000000       0xc8 ..\obj\inet.o
 .text          0x00000000        0x0 ..\obj\netif.o
 .data          0x00000000        0x0 ..\obj\netif.o
 .text.netif_remove
                0x00000000       0x74 ..\obj\netif.o
 .text.netif_find
                0x00000000       0x70 ..\obj\netif.o
 .text.netif_set_link_up
                0x00000000       0x74 ..\obj\netif.o
 .text.netif_set_link_down
                0x00000000       0x30 ..\obj\netif.o
 .text.netif_is_link_up
                0x00000000       0x28 ..\obj\netif.o
 .text.netif_set_link_callback
                0x00000000       0x20 ..\obj\netif.o
 .text          0x00000000        0x0 ..\obj\api_msg.o
 .data          0x00000000        0x0 ..\obj\api_msg.o
 .bss           0x00000000        0x0 ..\obj\api_msg.o
 .debug_info    0x00000000       0x72 ..\obj\api_msg.o
 .debug_abbrev  0x00000000       0x26 ..\obj\api_msg.o
 .debug_aranges
                0x00000000       0x18 ..\obj\api_msg.o
 .debug_line    0x00000000       0x1d ..\obj\api_msg.o
 .debug_str     0x00000000      0x197 ..\obj\api_msg.o
 .comment       0x00000000       0x71 ..\obj\api_msg.o
 .ARM.attributes
                0x00000000       0x33 ..\obj\api_msg.o
 .text          0x00000000        0x0 ..\obj\stm32f4xx_gpio.o
 .data          0x00000000        0x0 ..\obj\stm32f4xx_gpio.o
 .bss           0x00000000        0x0 ..\obj\stm32f4xx_gpio.o
 .text.GPIO_DeInit
                0x00000000      0x120 ..\obj\stm32f4xx_gpio.o
 .text.GPIO_StructInit
                0x00000000       0x34 ..\obj\stm32f4xx_gpio.o
 .text.GPIO_PinLockConfig
                0x00000000       0x44 ..\obj\stm32f4xx_gpio.o
 .text.GPIO_ReadInputDataBit
                0x00000000       0x34 ..\obj\stm32f4xx_gpio.o
 .text.GPIO_ReadInputData
                0x00000000       0x1c ..\obj\stm32f4xx_gpio.o
 .text.GPIO_ReadOutputDataBit
                0x00000000       0x34 ..\obj\stm32f4xx_gpio.o
 .text.GPIO_ReadOutputData
                0x00000000       0x1c ..\obj\stm32f4xx_gpio.o
 .text.GPIO_WriteBit
                0x00000000       0x30 ..\obj\stm32f4xx_gpio.o
 .text.GPIO_Write
                0x00000000       0x1c ..\obj\stm32f4xx_gpio.o
 .text.GPIO_ToggleBits
                0x00000000       0x24 ..\obj\stm32f4xx_gpio.o
 .text          0x00000000        0x0 ..\obj\system_stm32f4xx.o
 .data          0x00000000       0x14 ..\obj\system_stm32f4xx.o
 .bss           0x00000000        0x0 ..\obj\system_stm32f4xx.o
 .text.SystemCoreClockUpdate
                0x00000000       0xf8 ..\obj\system_stm32f4xx.o
 .text          0x00000000        0x0 ..\obj\syscalls.o
 .data          0x00000000        0x0 ..\obj\syscalls.o
 .text.link     0x00000000       0x1c ..\obj\syscalls.o
 .text._close   0x00000000       0x18 ..\obj\syscalls.o
 .text._fstat   0x00000000       0x20 ..\obj\syscalls.o
 .text._isatty  0x00000000       0x18 ..\obj\syscalls.o
 .text._lseek   0x00000000       0x1c ..\obj\syscalls.o
 .text._read    0x00000000       0x1c ..\obj\syscalls.o
 .text._write   0x00000000       0x1c ..\obj\syscalls.o
 .text.abort    0x00000000        0x8 ..\obj\syscalls.o
 .text          0x00000000        0x0 ..\obj\stm32f4xx_dma.o
 .data          0x00000000        0x0 ..\obj\stm32f4xx_dma.o
 .bss           0x00000000        0x0 ..\obj\stm32f4xx_dma.o
 .text.DMA_DeInit
                0x00000000      0x1a4 ..\obj\stm32f4xx_dma.o
 .text.DMA_Init
                0x00000000       0xac ..\obj\stm32f4xx_dma.o
 .text.DMA_StructInit
                0x00000000       0x6c ..\obj\stm32f4xx_dma.o
 .text.DMA_Cmd  0x00000000       0x38 ..\obj\stm32f4xx_dma.o
 .text.DMA_PeriphIncOffsetSizeConfig
                0x00000000       0x34 ..\obj\stm32f4xx_dma.o
 .text.DMA_FlowControllerConfig
                0x00000000       0x34 ..\obj\stm32f4xx_dma.o
 .text.DMA_SetCurrDataCounter
                0x00000000       0x1c ..\obj\stm32f4xx_dma.o
 .text.DMA_GetCurrDataCounter
                0x00000000       0x1c ..\obj\stm32f4xx_dma.o
 .text.DMA_DoubleBufferModeConfig
                0x00000000       0x3c ..\obj\stm32f4xx_dma.o
 .text.DMA_DoubleBufferModeCmd
                0x00000000       0x38 ..\obj\stm32f4xx_dma.o
 .text.DMA_MemoryTargetConfig
                0x00000000       0x2c ..\obj\stm32f4xx_dma.o
 .text.DMA_GetCurrentMemoryTarget
                0x00000000       0x30 ..\obj\stm32f4xx_dma.o
 .text.DMA_GetCmdStatus
                0x00000000       0x30 ..\obj\stm32f4xx_dma.o
 .text.DMA_GetFIFOStatus
                0x00000000       0x24 ..\obj\stm32f4xx_dma.o
 .text.DMA_GetFlagStatus
                0x00000000       0x78 ..\obj\stm32f4xx_dma.o
 .text.DMA_ClearFlag
                0x00000000       0x5c ..\obj\stm32f4xx_dma.o
 .text.DMA_ITConfig
                0x00000000       0x74 ..\obj\stm32f4xx_dma.o
 .text.DMA_GetITStatus
                0x00000000       0xb0 ..\obj\stm32f4xx_dma.o
 .text.DMA_ClearITPendingBit
                0x00000000       0x5c ..\obj\stm32f4xx_dma.o
 .debug_info    0x00000000      0x739 ..\obj\stm32f4xx_dma.o
 .debug_abbrev  0x00000000      0x155 ..\obj\stm32f4xx_dma.o
 .debug_aranges
                0x00000000       0xb0 ..\obj\stm32f4xx_dma.o
 .debug_ranges  0x00000000       0xa0 ..\obj\stm32f4xx_dma.o
 .debug_line    0x00000000      0x40b ..\obj\stm32f4xx_dma.o
 .debug_str     0x00000000      0x54a ..\obj\stm32f4xx_dma.o
 .comment       0x00000000       0x71 ..\obj\stm32f4xx_dma.o
 .ARM.attributes
                0x00000000       0x33 ..\obj\stm32f4xx_dma.o
 .debug_frame   0x00000000      0x224 ..\obj\stm32f4xx_dma.o
 .text          0x00000000        0x0 ..\obj\sockets.o
 .data          0x00000000        0x0 ..\obj\sockets.o
 .bss           0x00000000        0x0 ..\obj\sockets.o
 .debug_info    0x00000000       0x72 ..\obj\sockets.o
 .debug_abbrev  0x00000000       0x26 ..\obj\sockets.o
 .debug_aranges
                0x00000000       0x18 ..\obj\sockets.o
 .debug_line    0x00000000       0x1d ..\obj\sockets.o
 .debug_str     0x00000000      0x197 ..\obj\sockets.o
 .comment       0x00000000       0x71 ..\obj\sockets.o
 .ARM.attributes
                0x00000000       0x33 ..\obj\sockets.o
 .text          0x00000000        0x0 ..\obj\igmp.o
 .data          0x00000000        0x0 ..\obj\igmp.o
 .bss           0x00000000        0x0 ..\obj\igmp.o
 .debug_info    0x00000000       0x72 ..\obj\igmp.o
 .debug_abbrev  0x00000000       0x26 ..\obj\igmp.o
 .debug_aranges
                0x00000000       0x18 ..\obj\igmp.o
 .debug_line    0x00000000       0x1d ..\obj\igmp.o
 .debug_str     0x00000000      0x19a ..\obj\igmp.o
 .comment       0x00000000       0x71 ..\obj\igmp.o
 .ARM.attributes
                0x00000000       0x33 ..\obj\igmp.o
 .text          0x00000000        0x0 ..\obj\udp.o
 .data          0x00000000        0x0 ..\obj\udp.o
 .bss           0x00000000        0x0 ..\obj\udp.o
 .text.udp_send
                0x00000000       0x24 ..\obj\udp.o
 .text.udp_sendto
                0x00000000       0x3c ..\obj\udp.o
 .text.udp_disconnect
                0x00000000       0x34 ..\obj\udp.o
 .text          0x00000000        0x0 ..\obj\ip.o
 .data          0x00000000        0x0 ..\obj\ip.o
 .text          0x00000000        0x0 ..\obj\stm32f4xx_exti.o
 .data          0x00000000        0x0 ..\obj\stm32f4xx_exti.o
 .bss           0x00000000        0x0 ..\obj\stm32f4xx_exti.o
 .text.EXTI_DeInit
                0x00000000       0x34 ..\obj\stm32f4xx_exti.o
 .text.EXTI_Init
                0x00000000       0xdc ..\obj\stm32f4xx_exti.o
 .text.EXTI_StructInit
                0x00000000       0x2c ..\obj\stm32f4xx_exti.o
 .text.EXTI_GenerateSWInterrupt
                0x00000000       0x24 ..\obj\stm32f4xx_exti.o
 .text.EXTI_GetFlagStatus
                0x00000000       0x34 ..\obj\stm32f4xx_exti.o
 .text.EXTI_ClearFlag
                0x00000000       0x1c ..\obj\stm32f4xx_exti.o
 .text.EXTI_GetITStatus
                0x00000000       0x48 ..\obj\stm32f4xx_exti.o
 .text.EXTI_ClearITPendingBit
                0x00000000       0x1c ..\obj\stm32f4xx_exti.o
 .debug_info    0x00000000      0x347 ..\obj\stm32f4xx_exti.o
 .debug_abbrev  0x00000000      0x1a5 ..\obj\stm32f4xx_exti.o
 .debug_aranges
                0x00000000       0x58 ..\obj\stm32f4xx_exti.o
 .debug_ranges  0x00000000       0x48 ..\obj\stm32f4xx_exti.o
 .debug_line    0x00000000      0x2d4 ..\obj\stm32f4xx_exti.o
 .debug_str     0x00000000      0x361 ..\obj\stm32f4xx_exti.o
 .comment       0x00000000       0x71 ..\obj\stm32f4xx_exti.o
 .ARM.attributes
                0x00000000       0x33 ..\obj\stm32f4xx_exti.o
 .debug_frame   0x00000000       0xec ..\obj\stm32f4xx_exti.o
 .text          0x00000000        0x0 ..\obj\icmp.o
 .data          0x00000000        0x0 ..\obj\icmp.o
 .bss           0x00000000        0x0 ..\obj\icmp.o
 .text          0x00000000        0x0 ..\obj\dns.o
 .data          0x00000000        0x0 ..\obj\dns.o
 .bss           0x00000000        0x0 ..\obj\dns.o
 .debug_info    0x00000000       0x72 ..\obj\dns.o
 .debug_abbrev  0x00000000       0x26 ..\obj\dns.o
 .debug_aranges
                0x00000000       0x18 ..\obj\dns.o
 .debug_line    0x00000000       0x1d ..\obj\dns.o
 .debug_str     0x00000000      0x194 ..\obj\dns.o
 .comment       0x00000000       0x71 ..\obj\dns.o
 .ARM.attributes
                0x00000000       0x33 ..\obj\dns.o
 .text          0x00000000        0x0 ..\obj\netifapi.o
 .data          0x00000000        0x0 ..\obj\netifapi.o
 .bss           0x00000000        0x0 ..\obj\netifapi.o
 .debug_info    0x00000000       0x72 ..\obj\netifapi.o
 .debug_abbrev  0x00000000       0x26 ..\obj\netifapi.o
 .debug_aranges
                0x00000000       0x18 ..\obj\netifapi.o
 .debug_line    0x00000000       0x1d ..\obj\netifapi.o
 .debug_str     0x00000000      0x198 ..\obj\netifapi.o
 .comment       0x00000000       0x71 ..\obj\netifapi.o
 .ARM.attributes
                0x00000000       0x33 ..\obj\netifapi.o
 .text          0x00000000        0x0 ..\obj\misc.o
 .data          0x00000000        0x0 ..\obj\misc.o
 .bss           0x00000000        0x0 ..\obj\misc.o
 .text.NVIC_Init
                0x00000000       0xbc ..\obj\misc.o
 .text.NVIC_SetVectorTable
                0x00000000       0x2c ..\obj\misc.o
 .text.NVIC_SystemLPConfig
                0x00000000       0x40 ..\obj\misc.o
 .text          0x00000000        0x0 ..\obj\api_lib.o
 .data          0x00000000        0x0 ..\obj\api_lib.o
 .bss           0x00000000        0x0 ..\obj\api_lib.o
 .debug_info    0x00000000       0x72 ..\obj\api_lib.o
 .debug_abbrev  0x00000000       0x26 ..\obj\api_lib.o
 .debug_aranges
                0x00000000       0x18 ..\obj\api_lib.o
 .debug_line    0x00000000       0x1d ..\obj\api_lib.o
 .debug_str     0x00000000      0x197 ..\obj\api_lib.o
 .comment       0x00000000       0x71 ..\obj\api_lib.o
 .ARM.attributes
                0x00000000       0x33 ..\obj\api_lib.o
 .text          0x00000000        0x0 ..\obj\dhcp.o
 .bss           0x00000000        0x0 ..\obj\dhcp.o
 .text.dhcp_inform
                0x00000000       0xf0 ..\obj\dhcp.o
 .text.dhcp_network_changed
                0x00000000       0x80 ..\obj\dhcp.o
 .text          0x00000000        0x0 ..\obj\tcp_out.o
 .data          0x00000000        0x0 ..\obj\tcp_out.o
 .bss           0x00000000        0x0 ..\obj\tcp_out.o
 .text          0x00000000        0x0 ..\obj\loopif.o
 .data          0x00000000        0x0 ..\obj\loopif.o
 .bss           0x00000000        0x0 ..\obj\loopif.o
 .debug_info    0x00000000       0x72 ..\obj\loopif.o
 .debug_abbrev  0x00000000       0x26 ..\obj\loopif.o
 .debug_aranges
                0x00000000       0x18 ..\obj\loopif.o
 .debug_line    0x00000000       0x1d ..\obj\loopif.o
 .debug_str     0x00000000      0x198 ..\obj\loopif.o
 .comment       0x00000000       0x71 ..\obj\loopif.o
 .ARM.attributes
                0x00000000       0x33 ..\obj\loopif.o
 .text          0x00000000        0x0 ..\obj\raw.o
 .data          0x00000000        0x0 ..\obj\raw.o
 .text.raw_bind
                0x00000000       0x2c ..\obj\raw.o
 .text.raw_connect
                0x00000000       0x2c ..\obj\raw.o
 .text.raw_recv
                0x00000000       0x24 ..\obj\raw.o
 .text.raw_sendto
                0x00000000       0xc8 ..\obj\raw.o
 .text.raw_send
                0x00000000       0x24 ..\obj\raw.o
 .text.raw_remove
                0x00000000       0x60 ..\obj\raw.o
 .text.raw_new  0x00000000       0x4c ..\obj\raw.o
 .data          0x00000000        0x0 c:/program files (x86)/gnu tools arm embedded/4.8 2014q1/bin/../lib/gcc/arm-none-eabi/4.8.3/armv7e-m\libgcc.a(_arm_addsubdf3.o)
 .bss           0x00000000        0x0 c:/program files (x86)/gnu tools arm embedded/4.8 2014q1/bin/../lib/gcc/arm-none-eabi/4.8.3/armv7e-m\libgcc.a(_arm_addsubdf3.o)
 .data          0x00000000        0x0 c:/program files (x86)/gnu tools arm embedded/4.8 2014q1/bin/../lib/gcc/arm-none-eabi/4.8.3/armv7e-m\libgcc.a(_arm_muldivdf3.o)
 .bss           0x00000000        0x0 c:/program files (x86)/gnu tools arm embedded/4.8 2014q1/bin/../lib/gcc/arm-none-eabi/4.8.3/armv7e-m\libgcc.a(_arm_muldivdf3.o)
 .data          0x00000000        0x0 c:/program files (x86)/gnu tools arm embedded/4.8 2014q1/bin/../lib/gcc/arm-none-eabi/4.8.3/armv7e-m\libgcc.a(_arm_fixunsdfsi.o)
 .bss           0x00000000        0x0 c:/program files (x86)/gnu tools arm embedded/4.8 2014q1/bin/../lib/gcc/arm-none-eabi/4.8.3/armv7e-m\libgcc.a(_arm_fixunsdfsi.o)
 .text          0x00000000        0x0 c:/program files (x86)/gnu tools arm embedded/4.8 2014q1/bin/../lib/gcc/arm-none-eabi/4.8.3/../../../../arm-none-eabi/lib/armv7e-m\libg.a(lib_a-memcmp.o)
 .data          0x00000000        0x0 c:/program files (x86)/gnu tools arm embedded/4.8 2014q1/bin/../lib/gcc/arm-none-eabi/4.8.3/../../../../arm-none-eabi/lib/armv7e-m\libg.a(lib_a-memcmp.o)
 .bss           0x00000000        0x0 c:/program files (x86)/gnu tools arm embedded/4.8 2014q1/bin/../lib/gcc/arm-none-eabi/4.8.3/../../../../arm-none-eabi/lib/armv7e-m\libg.a(lib_a-memcmp.o)
 .data          0x00000000        0x0 c:/program files (x86)/gnu tools arm embedded/4.8 2014q1/bin/../lib/gcc/arm-none-eabi/4.8.3/../../../../arm-none-eabi/lib/armv7e-m\libg.a(lib_a-memcpy.o)
 .bss           0x00000000        0x0 c:/program files (x86)/gnu tools arm embedded/4.8 2014q1/bin/../lib/gcc/arm-none-eabi/4.8.3/../../../../arm-none-eabi/lib/armv7e-m\libg.a(lib_a-memcpy.o)
 .text          0x00000000        0x0 c:/program files (x86)/gnu tools arm embedded/4.8 2014q1/bin/../lib/gcc/arm-none-eabi/4.8.3/../../../../arm-none-eabi/lib/armv7e-m\libg.a(lib_a-memset.o)
 .data          0x00000000        0x0 c:/program files (x86)/gnu tools arm embedded/4.8 2014q1/bin/../lib/gcc/arm-none-eabi/4.8.3/../../../../arm-none-eabi/lib/armv7e-m\libg.a(lib_a-memset.o)
 .bss           0x00000000        0x0 c:/program files (x86)/gnu tools arm embedded/4.8 2014q1/bin/../lib/gcc/arm-none-eabi/4.8.3/../../../../arm-none-eabi/lib/armv7e-m\libg.a(lib_a-memset.o)
 .text          0x00000000        0x0 c:/program files (x86)/gnu tools arm embedded/4.8 2014q1/bin/../lib/gcc/arm-none-eabi/4.8.3/../../../../arm-none-eabi/lib/armv7e-m\libg.a(lib_a-sprintf.o)
 .data          0x00000000        0x0 c:/program files (x86)/gnu tools arm embedded/4.8 2014q1/bin/../lib/gcc/arm-none-eabi/4.8.3/../../../../arm-none-eabi/lib/armv7e-m\libg.a(lib_a-sprintf.o)
 .bss           0x00000000        0x0 c:/program files (x86)/gnu tools arm embedded/4.8 2014q1/bin/../lib/gcc/arm-none-eabi/4.8.3/../../../../arm-none-eabi/lib/armv7e-m\libg.a(lib_a-sprintf.o)
 .text._sprintf_r
                0x00000000       0x44 c:/program files (x86)/gnu tools arm embedded/4.8 2014q1/bin/../lib/gcc/arm-none-eabi/4.8.3/../../../../arm-none-eabi/lib/armv7e-m\libg.a(lib_a-sprintf.o)
 .text          0x00000000        0x0 c:/program files (x86)/gnu tools arm embedded/4.8 2014q1/bin/../lib/gcc/arm-none-eabi/4.8.3/../../../../arm-none-eabi/lib/armv7e-m\libg.a(lib_a-strchr.o)
 .data          0x00000000        0x0 c:/program files (x86)/gnu tools arm embedded/4.8 2014q1/bin/../lib/gcc/arm-none-eabi/4.8.3/../../../../arm-none-eabi/lib/armv7e-m\libg.a(lib_a-strchr.o)
 .bss           0x00000000        0x0 c:/program files (x86)/gnu tools arm embedded/4.8 2014q1/bin/../lib/gcc/arm-none-eabi/4.8.3/../../../../arm-none-eabi/lib/armv7e-m\libg.a(lib_a-strchr.o)
 .data          0x00000000        0x0 c:/program files (x86)/gnu tools arm embedded/4.8 2014q1/bin/../lib/gcc/arm-none-eabi/4.8.3/../../../../arm-none-eabi/lib/armv7e-m\libg.a(lib_a-strcmp.o)
 .bss           0x00000000        0x0 c:/program files (x86)/gnu tools arm embedded/4.8 2014q1/bin/../lib/gcc/arm-none-eabi/4.8.3/../../../../arm-none-eabi/lib/armv7e-m\libg.a(lib_a-strcmp.o)
 .text          0x00000000        0x0 c:/program files (x86)/gnu tools arm embedded/4.8 2014q1/bin/../lib/gcc/arm-none-eabi/4.8.3/../../../../arm-none-eabi/lib/armv7e-m\libg.a(lib_a-strlen.o)
 .data          0x00000000        0x0 c:/program files (x86)/gnu tools arm embedded/4.8 2014q1/bin/../lib/gcc/arm-none-eabi/4.8.3/../../../../arm-none-eabi/lib/armv7e-m\libg.a(lib_a-strlen.o)
 .bss           0x00000000        0x0 c:/program files (x86)/gnu tools arm embedded/4.8 2014q1/bin/../lib/gcc/arm-none-eabi/4.8.3/../../../../arm-none-eabi/lib/armv7e-m\libg.a(lib_a-strlen.o)
 .text          0x00000000        0x0 c:/program files (x86)/gnu tools arm embedded/4.8 2014q1/bin/../lib/gcc/arm-none-eabi/4.8.3/../../../../arm-none-eabi/lib/armv7e-m\libg.a(lib_a-strncmp.o)
 .data          0x00000000        0x0 c:/program files (x86)/gnu tools arm embedded/4.8 2014q1/bin/../lib/gcc/arm-none-eabi/4.8.3/../../../../arm-none-eabi/lib/armv7e-m\libg.a(lib_a-strncmp.o)
 .bss           0x00000000        0x0 c:/program files (x86)/gnu tools arm embedded/4.8 2014q1/bin/../lib/gcc/arm-none-eabi/4.8.3/../../../../arm-none-eabi/lib/armv7e-m\libg.a(lib_a-strncmp.o)
 .text          0x00000000        0x0 c:/program files (x86)/gnu tools arm embedded/4.8 2014q1/bin/../lib/gcc/arm-none-eabi/4.8.3/../../../../arm-none-eabi/lib/armv7e-m\libg.a(lib_a-strstr.o)
 .data          0x00000000        0x0 c:/program files (x86)/gnu tools arm embedded/4.8 2014q1/bin/../lib/gcc/arm-none-eabi/4.8.3/../../../../arm-none-eabi/lib/armv7e-m\libg.a(lib_a-strstr.o)
 .bss           0x00000000        0x0 c:/program files (x86)/gnu tools arm embedded/4.8 2014q1/bin/../lib/gcc/arm-none-eabi/4.8.3/../../../../arm-none-eabi/lib/armv7e-m\libg.a(lib_a-strstr.o)
 .text          0x00000000        0x0 c:/program files (x86)/gnu tools arm embedded/4.8 2014q1/bin/../lib/gcc/arm-none-eabi/4.8.3/../../../../arm-none-eabi/lib/armv7e-m\libg.a(lib_a-svfprintf.o)
 .data          0x00000000        0x0 c:/program files (x86)/gnu tools arm embedded/4.8 2014q1/bin/../lib/gcc/arm-none-eabi/4.8.3/../../../../arm-none-eabi/lib/armv7e-m\libg.a(lib_a-svfprintf.o)
 .bss           0x00000000        0x0 c:/program files (x86)/gnu tools arm embedded/4.8 2014q1/bin/../lib/gcc/arm-none-eabi/4.8.3/../../../../arm-none-eabi/lib/armv7e-m\libg.a(lib_a-svfprintf.o)
 .text          0x00000000        0x0 c:/program files (x86)/gnu tools arm embedded/4.8 2014q1/bin/../lib/gcc/arm-none-eabi/4.8.3/../../../../arm-none-eabi/lib/armv7e-m\libg.a(lib_a-dtoa.o)
 .data          0x00000000        0x0 c:/program files (x86)/gnu tools arm embedded/4.8 2014q1/bin/../lib/gcc/arm-none-eabi/4.8.3/../../../../arm-none-eabi/lib/armv7e-m\libg.a(lib_a-dtoa.o)
 .bss           0x00000000        0x0 c:/program files (x86)/gnu tools arm embedded/4.8 2014q1/bin/../lib/gcc/arm-none-eabi/4.8.3/../../../../arm-none-eabi/lib/armv7e-m\libg.a(lib_a-dtoa.o)
 .text          0x00000000        0x0 c:/program files (x86)/gnu tools arm embedded/4.8 2014q1/bin/../lib/gcc/arm-none-eabi/4.8.3/../../../../arm-none-eabi/lib/armv7e-m\libg.a(lib_a-impure.o)
 .data          0x00000000        0x0 c:/program files (x86)/gnu tools arm embedded/4.8 2014q1/bin/../lib/gcc/arm-none-eabi/4.8.3/../../../../arm-none-eabi/lib/armv7e-m\libg.a(lib_a-impure.o)
 .bss           0x00000000        0x0 c:/program files (x86)/gnu tools arm embedded/4.8 2014q1/bin/../lib/gcc/arm-none-eabi/4.8.3/../../../../arm-none-eabi/lib/armv7e-m\libg.a(lib_a-impure.o)
 .rodata._global_impure_ptr
                0x00000000        0x4 c:/program files (x86)/gnu tools arm embedded/4.8 2014q1/bin/../lib/gcc/arm-none-eabi/4.8.3/../../../../arm-none-eabi/lib/armv7e-m\libg.a(lib_a-impure.o)
 .text          0x00000000        0x0 c:/program files (x86)/gnu tools arm embedded/4.8 2014q1/bin/../lib/gcc/arm-none-eabi/4.8.3/../../../../arm-none-eabi/lib/armv7e-m\libg.a(lib_a-locale.o)
 .data          0x00000000        0x0 c:/program files (x86)/gnu tools arm embedded/4.8 2014q1/bin/../lib/gcc/arm-none-eabi/4.8.3/../../../../arm-none-eabi/lib/armv7e-m\libg.a(lib_a-locale.o)
 .bss           0x00000000        0x0 c:/program files (x86)/gnu tools arm embedded/4.8 2014q1/bin/../lib/gcc/arm-none-eabi/4.8.3/../../../../arm-none-eabi/lib/armv7e-m\libg.a(lib_a-locale.o)
 .text._setlocale_r
                0x00000000       0x40 c:/program files (x86)/gnu tools arm embedded/4.8 2014q1/bin/../lib/gcc/arm-none-eabi/4.8.3/../../../../arm-none-eabi/lib/armv7e-m\libg.a(lib_a-locale.o)
 .text.__locale_charset
                0x00000000        0x8 c:/program files (x86)/gnu tools arm embedded/4.8 2014q1/bin/../lib/gcc/arm-none-eabi/4.8.3/../../../../arm-none-eabi/lib/armv7e-m\libg.a(lib_a-locale.o)
 .text.__locale_mb_cur_max
                0x00000000        0xc c:/program files (x86)/gnu tools arm embedded/4.8 2014q1/bin/../lib/gcc/arm-none-eabi/4.8.3/../../../../arm-none-eabi/lib/armv7e-m\libg.a(lib_a-locale.o)
 .text.__locale_msgcharset
                0x00000000        0x8 c:/program files (x86)/gnu tools arm embedded/4.8 2014q1/bin/../lib/gcc/arm-none-eabi/4.8.3/../../../../arm-none-eabi/lib/armv7e-m\libg.a(lib_a-locale.o)
 .text.__locale_cjk_lang
                0x00000000        0x4 c:/program files (x86)/gnu tools arm embedded/4.8 2014q1/bin/../lib/gcc/arm-none-eabi/4.8.3/../../../../arm-none-eabi/lib/armv7e-m\libg.a(lib_a-locale.o)
 .text.setlocale
                0x00000000       0x10 c:/program files (x86)/gnu tools arm embedded/4.8 2014q1/bin/../lib/gcc/arm-none-eabi/4.8.3/../../../../arm-none-eabi/lib/armv7e-m\libg.a(lib_a-locale.o)
 .text.localeconv
                0x00000000        0x8 c:/program files (x86)/gnu tools arm embedded/4.8 2014q1/bin/../lib/gcc/arm-none-eabi/4.8.3/../../../../arm-none-eabi/lib/armv7e-m\libg.a(lib_a-locale.o)
 .data.lc_message_charset
                0x00000000       0x20 c:/program files (x86)/gnu tools arm embedded/4.8 2014q1/bin/../lib/gcc/arm-none-eabi/4.8.3/../../../../arm-none-eabi/lib/armv7e-m\libg.a(lib_a-locale.o)
 .bss._PathLocale
                0x00000000        0x4 c:/program files (x86)/gnu tools arm embedded/4.8 2014q1/bin/../lib/gcc/arm-none-eabi/4.8.3/../../../../arm-none-eabi/lib/armv7e-m\libg.a(lib_a-locale.o)
 .bss.__nlocale_changed
                0x00000000        0x4 c:/program files (x86)/gnu tools arm embedded/4.8 2014q1/bin/../lib/gcc/arm-none-eabi/4.8.3/../../../../arm-none-eabi/lib/armv7e-m\libg.a(lib_a-locale.o)
 .bss.__mlocale_changed
                0x00000000        0x4 c:/program files (x86)/gnu tools arm embedded/4.8 2014q1/bin/../lib/gcc/arm-none-eabi/4.8.3/../../../../arm-none-eabi/lib/armv7e-m\libg.a(lib_a-locale.o)
 .data.lc_ctype_charset
                0x00000000       0x20 c:/program files (x86)/gnu tools arm embedded/4.8 2014q1/bin/../lib/gcc/arm-none-eabi/4.8.3/../../../../arm-none-eabi/lib/armv7e-m\libg.a(lib_a-locale.o)
 .data.__mb_cur_max
                0x00000000        0x4 c:/program files (x86)/gnu tools arm embedded/4.8 2014q1/bin/../lib/gcc/arm-none-eabi/4.8.3/../../../../arm-none-eabi/lib/armv7e-m\libg.a(lib_a-locale.o)
 .text          0x00000000        0x0 c:/program files (x86)/gnu tools arm embedded/4.8 2014q1/bin/../lib/gcc/arm-none-eabi/4.8.3/../../../../arm-none-eabi/lib/armv7e-m\libg.a(lib_a-mallocr.o)
 .data          0x00000000        0x0 c:/program files (x86)/gnu tools arm embedded/4.8 2014q1/bin/../lib/gcc/arm-none-eabi/4.8.3/../../../../arm-none-eabi/lib/armv7e-m\libg.a(lib_a-mallocr.o)
 .bss           0x00000000        0x0 c:/program files (x86)/gnu tools arm embedded/4.8 2014q1/bin/../lib/gcc/arm-none-eabi/4.8.3/../../../../arm-none-eabi/lib/armv7e-m\libg.a(lib_a-mallocr.o)
 .text          0x00000000        0x0 c:/program files (x86)/gnu tools arm embedded/4.8 2014q1/bin/../lib/gcc/arm-none-eabi/4.8.3/../../../../arm-none-eabi/lib/armv7e-m\libg.a(lib_a-memchr-stub.o)
 .data          0x00000000        0x0 c:/program files (x86)/gnu tools arm embedded/4.8 2014q1/bin/../lib/gcc/arm-none-eabi/4.8.3/../../../../arm-none-eabi/lib/armv7e-m\libg.a(lib_a-memchr-stub.o)
 .bss           0x00000000        0x0 c:/program files (x86)/gnu tools arm embedded/4.8 2014q1/bin/../lib/gcc/arm-none-eabi/4.8.3/../../../../arm-none-eabi/lib/armv7e-m\libg.a(lib_a-memchr-stub.o)
 .text          0x00000000        0x0 c:/program files (x86)/gnu tools arm embedded/4.8 2014q1/bin/../lib/gcc/arm-none-eabi/4.8.3/../../../../arm-none-eabi/lib/armv7e-m\libg.a(lib_a-mlock.o)
 .data          0x00000000        0x0 c:/program files (x86)/gnu tools arm embedded/4.8 2014q1/bin/../lib/gcc/arm-none-eabi/4.8.3/../../../../arm-none-eabi/lib/armv7e-m\libg.a(lib_a-mlock.o)
 .bss           0x00000000        0x0 c:/program files (x86)/gnu tools arm embedded/4.8 2014q1/bin/../lib/gcc/arm-none-eabi/4.8.3/../../../../arm-none-eabi/lib/armv7e-m\libg.a(lib_a-mlock.o)
 .text          0x00000000        0x0 c:/program files (x86)/gnu tools arm embedded/4.8 2014q1/bin/../lib/gcc/arm-none-eabi/4.8.3/../../../../arm-none-eabi/lib/armv7e-m\libg.a(lib_a-mprec.o)
 .data          0x00000000        0x0 c:/program files (x86)/gnu tools arm embedded/4.8 2014q1/bin/../lib/gcc/arm-none-eabi/4.8.3/../../../../arm-none-eabi/lib/armv7e-m\libg.a(lib_a-mprec.o)
 .bss           0x00000000        0x0 c:/program files (x86)/gnu tools arm embedded/4.8 2014q1/bin/../lib/gcc/arm-none-eabi/4.8.3/../../../../arm-none-eabi/lib/armv7e-m\libg.a(lib_a-mprec.o)
 .text.__s2b    0x00000000       0x98 c:/program files (x86)/gnu tools arm embedded/4.8 2014q1/bin/../lib/gcc/arm-none-eabi/4.8.3/../../../../arm-none-eabi/lib/armv7e-m\libg.a(lib_a-mprec.o)
 .text.__ulp    0x00000000       0x40 c:/program files (x86)/gnu tools arm embedded/4.8 2014q1/bin/../lib/gcc/arm-none-eabi/4.8.3/../../../../arm-none-eabi/lib/armv7e-m\libg.a(lib_a-mprec.o)
 .text.__b2d    0x00000000       0xb4 c:/program files (x86)/gnu tools arm embedded/4.8 2014q1/bin/../lib/gcc/arm-none-eabi/4.8.3/../../../../arm-none-eabi/lib/armv7e-m\libg.a(lib_a-mprec.o)
 .text.__ratio  0x00000000       0x50 c:/program files (x86)/gnu tools arm embedded/4.8 2014q1/bin/../lib/gcc/arm-none-eabi/4.8.3/../../../../arm-none-eabi/lib/armv7e-m\libg.a(lib_a-mprec.o)
 .text._mprec_log10
                0x00000000       0x34 c:/program files (x86)/gnu tools arm embedded/4.8 2014q1/bin/../lib/gcc/arm-none-eabi/4.8.3/../../../../arm-none-eabi/lib/armv7e-m\libg.a(lib_a-mprec.o)
 .text.__copybits
                0x00000000       0x48 c:/program files (x86)/gnu tools arm embedded/4.8 2014q1/bin/../lib/gcc/arm-none-eabi/4.8.3/../../../../arm-none-eabi/lib/armv7e-m\libg.a(lib_a-mprec.o)
 .text.__any_on
                0x00000000       0x60 c:/program files (x86)/gnu tools arm embedded/4.8 2014q1/bin/../lib/gcc/arm-none-eabi/4.8.3/../../../../arm-none-eabi/lib/armv7e-m\libg.a(lib_a-mprec.o)
 .rodata.__mprec_tinytens
                0x00000000       0x28 c:/program files (x86)/gnu tools arm embedded/4.8 2014q1/bin/../lib/gcc/arm-none-eabi/4.8.3/../../../../arm-none-eabi/lib/armv7e-m\libg.a(lib_a-mprec.o)
 .text          0x00000000        0x0 c:/program files (x86)/gnu tools arm embedded/4.8 2014q1/bin/../lib/gcc/arm-none-eabi/4.8.3/../../../../arm-none-eabi/lib/armv7e-m\libg.a(lib_a-s_fpclassify.o)
 .data          0x00000000        0x0 c:/program files (x86)/gnu tools arm embedded/4.8 2014q1/bin/../lib/gcc/arm-none-eabi/4.8.3/../../../../arm-none-eabi/lib/armv7e-m\libg.a(lib_a-s_fpclassify.o)
 .bss           0x00000000        0x0 c:/program files (x86)/gnu tools arm embedded/4.8 2014q1/bin/../lib/gcc/arm-none-eabi/4.8.3/../../../../arm-none-eabi/lib/armv7e-m\libg.a(lib_a-s_fpclassify.o)
 .text          0x00000000        0x0 c:/program files (x86)/gnu tools arm embedded/4.8 2014q1/bin/../lib/gcc/arm-none-eabi/4.8.3/../../../../arm-none-eabi/lib/armv7e-m\libg.a(lib_a-sbrkr.o)
 .data          0x00000000        0x0 c:/program files (x86)/gnu tools arm embedded/4.8 2014q1/bin/../lib/gcc/arm-none-eabi/4.8.3/../../../../arm-none-eabi/lib/armv7e-m\libg.a(lib_a-sbrkr.o)
 .bss           0x00000000        0x0 c:/program files (x86)/gnu tools arm embedded/4.8 2014q1/bin/../lib/gcc/arm-none-eabi/4.8.3/../../../../arm-none-eabi/lib/armv7e-m\libg.a(lib_a-sbrkr.o)
 .text          0x00000000        0x0 c:/program files (x86)/gnu tools arm embedded/4.8 2014q1/bin/../lib/gcc/arm-none-eabi/4.8.3/../../../../arm-none-eabi/lib/armv7e-m\libg.a(lib_a-svfiprintf.o)
 .data          0x00000000        0x0 c:/program files (x86)/gnu tools arm embedded/4.8 2014q1/bin/../lib/gcc/arm-none-eabi/4.8.3/../../../../arm-none-eabi/lib/armv7e-m\libg.a(lib_a-svfiprintf.o)
 .bss           0x00000000        0x0 c:/program files (x86)/gnu tools arm embedded/4.8 2014q1/bin/../lib/gcc/arm-none-eabi/4.8.3/../../../../arm-none-eabi/lib/armv7e-m\libg.a(lib_a-svfiprintf.o)
 .text._svfiprintf_r
                0x00000000      0xb3c c:/program files (x86)/gnu tools arm embedded/4.8 2014q1/bin/../lib/gcc/arm-none-eabi/4.8.3/../../../../arm-none-eabi/lib/armv7e-m\libg.a(lib_a-svfiprintf.o)
 .rodata.zeroes.6704
                0x00000000       0x10 c:/program files (x86)/gnu tools arm embedded/4.8 2014q1/bin/../lib/gcc/arm-none-eabi/4.8.3/../../../../arm-none-eabi/lib/armv7e-m\libg.a(lib_a-svfiprintf.o)
 .rodata.str1.4
                0x00000000       0x30 c:/program files (x86)/gnu tools arm embedded/4.8 2014q1/bin/../lib/gcc/arm-none-eabi/4.8.3/../../../../arm-none-eabi/lib/armv7e-m\libg.a(lib_a-svfiprintf.o)
 .rodata.blanks.6703
                0x00000000       0x10 c:/program files (x86)/gnu tools arm embedded/4.8 2014q1/bin/../lib/gcc/arm-none-eabi/4.8.3/../../../../arm-none-eabi/lib/armv7e-m\libg.a(lib_a-svfiprintf.o)
 .text          0x00000000        0x0 c:/program files (x86)/gnu tools arm embedded/4.8 2014q1/bin/../lib/gcc/arm-none-eabi/4.8.3/../../../../arm-none-eabi/lib/armv7e-m\libg.a(lib_a-callocr.o)
 .data          0x00000000        0x0 c:/program files (x86)/gnu tools arm embedded/4.8 2014q1/bin/../lib/gcc/arm-none-eabi/4.8.3/../../../../arm-none-eabi/lib/armv7e-m\libg.a(lib_a-callocr.o)
 .bss           0x00000000        0x0 c:/program files (x86)/gnu tools arm embedded/4.8 2014q1/bin/../lib/gcc/arm-none-eabi/4.8.3/../../../../arm-none-eabi/lib/armv7e-m\libg.a(lib_a-callocr.o)
 .text          0x00000000        0x0 c:/program files (x86)/gnu tools arm embedded/4.8 2014q1/bin/../lib/gcc/arm-none-eabi/4.8.3/../../../../arm-none-eabi/lib/armv7e-m\libg.a(lib_a-freer.o)
 .data          0x00000000        0x0 c:/program files (x86)/gnu tools arm embedded/4.8 2014q1/bin/../lib/gcc/arm-none-eabi/4.8.3/../../../../arm-none-eabi/lib/armv7e-m\libg.a(lib_a-freer.o)
 .bss           0x00000000        0x0 c:/program files (x86)/gnu tools arm embedded/4.8 2014q1/bin/../lib/gcc/arm-none-eabi/4.8.3/../../../../arm-none-eabi/lib/armv7e-m\libg.a(lib_a-freer.o)
 .text          0x00000000        0x0 c:/program files (x86)/gnu tools arm embedded/4.8 2014q1/bin/../lib/gcc/arm-none-eabi/4.8.3/../../../../arm-none-eabi/lib/armv7e-m\libg.a(lib_a-memmove.o)
 .data          0x00000000        0x0 c:/program files (x86)/gnu tools arm embedded/4.8 2014q1/bin/../lib/gcc/arm-none-eabi/4.8.3/../../../../arm-none-eabi/lib/armv7e-m\libg.a(lib_a-memmove.o)
 .bss           0x00000000        0x0 c:/program files (x86)/gnu tools arm embedded/4.8 2014q1/bin/../lib/gcc/arm-none-eabi/4.8.3/../../../../arm-none-eabi/lib/armv7e-m\libg.a(lib_a-memmove.o)
 .text          0x00000000        0x0 c:/program files (x86)/gnu tools arm embedded/4.8 2014q1/bin/../lib/gcc/arm-none-eabi/4.8.3/../../../../arm-none-eabi/lib/armv7e-m\libg.a(lib_a-reallocr.o)
 .data          0x00000000        0x0 c:/program files (x86)/gnu tools arm embedded/4.8 2014q1/bin/../lib/gcc/arm-none-eabi/4.8.3/../../../../arm-none-eabi/lib/armv7e-m\libg.a(lib_a-reallocr.o)
 .bss           0x00000000        0x0 c:/program files (x86)/gnu tools arm embedded/4.8 2014q1/bin/../lib/gcc/arm-none-eabi/4.8.3/../../../../arm-none-eabi/lib/armv7e-m\libg.a(lib_a-reallocr.o)
 .text          0x00000000        0x0 c:/program files (x86)/gnu tools arm embedded/4.8 2014q1/bin/../lib/gcc/arm-none-eabi/4.8.3/../../../../arm-none-eabi/lib/armv7e-m\libg.a(lib_a-reent.o)
 .data          0x00000000        0x0 c:/program files (x86)/gnu tools arm embedded/4.8 2014q1/bin/../lib/gcc/arm-none-eabi/4.8.3/../../../../arm-none-eabi/lib/armv7e-m\libg.a(lib_a-reent.o)
 .bss           0x00000000        0x0 c:/program files (x86)/gnu tools arm embedded/4.8 2014q1/bin/../lib/gcc/arm-none-eabi/4.8.3/../../../../arm-none-eabi/lib/armv7e-m\libg.a(lib_a-reent.o)
 .text.cleanup_glue
                0x00000000       0x1c c:/program files (x86)/gnu tools arm embedded/4.8 2014q1/bin/../lib/gcc/arm-none-eabi/4.8.3/../../../../arm-none-eabi/lib/armv7e-m\libg.a(lib_a-reent.o)
 .text._reclaim_reent
                0x00000000       0x90 c:/program files (x86)/gnu tools arm embedded/4.8 2014q1/bin/../lib/gcc/arm-none-eabi/4.8.3/../../../../arm-none-eabi/lib/armv7e-m\libg.a(lib_a-reent.o)
 .data          0x00000000        0x0 c:/program files (x86)/gnu tools arm embedded/4.8 2014q1/bin/../lib/gcc/arm-none-eabi/4.8.3/armv7e-m\libgcc.a(_arm_cmpdf2.o)
 .bss           0x00000000        0x0 c:/program files (x86)/gnu tools arm embedded/4.8 2014q1/bin/../lib/gcc/arm-none-eabi/4.8.3/armv7e-m\libgcc.a(_arm_cmpdf2.o)
 .data          0x00000000        0x0 c:/program files (x86)/gnu tools arm embedded/4.8 2014q1/bin/../lib/gcc/arm-none-eabi/4.8.3/armv7e-m\libgcc.a(_arm_fixdfsi.o)
 .bss           0x00000000        0x0 c:/program files (x86)/gnu tools arm embedded/4.8 2014q1/bin/../lib/gcc/arm-none-eabi/4.8.3/armv7e-m\libgcc.a(_arm_fixdfsi.o)
 .data          0x00000000        0x0 c:/program files (x86)/gnu tools arm embedded/4.8 2014q1/bin/../lib/gcc/arm-none-eabi/4.8.3/armv7e-m\libgcc.a(_aeabi_uldivmod.o)
 .bss           0x00000000        0x0 c:/program files (x86)/gnu tools arm embedded/4.8 2014q1/bin/../lib/gcc/arm-none-eabi/4.8.3/armv7e-m\libgcc.a(_aeabi_uldivmod.o)
 .data          0x00000000        0x0 c:/program files (x86)/gnu tools arm embedded/4.8 2014q1/bin/../lib/gcc/arm-none-eabi/4.8.3/armv7e-m\libgcc.a(bpabi.o)
 .bss           0x00000000        0x0 c:/program files (x86)/gnu tools arm embedded/4.8 2014q1/bin/../lib/gcc/arm-none-eabi/4.8.3/armv7e-m\libgcc.a(bpabi.o)
 .data          0x00000000        0x0 c:/program files (x86)/gnu tools arm embedded/4.8 2014q1/bin/../lib/gcc/arm-none-eabi/4.8.3/armv7e-m\libgcc.a(_dvmd_tls.o)
 .bss           0x00000000        0x0 c:/program files (x86)/gnu tools arm embedded/4.8 2014q1/bin/../lib/gcc/arm-none-eabi/4.8.3/armv7e-m\libgcc.a(_dvmd_tls.o)
 .data          0x00000000        0x0 c:/program files (x86)/gnu tools arm embedded/4.8 2014q1/bin/../lib/gcc/arm-none-eabi/4.8.3/armv7e-m\libgcc.a(_divdi3.o)
 .bss           0x00000000        0x0 c:/program files (x86)/gnu tools arm embedded/4.8 2014q1/bin/../lib/gcc/arm-none-eabi/4.8.3/armv7e-m\libgcc.a(_divdi3.o)
 .ARM.extab     0x00000000        0x0 c:/program files (x86)/gnu tools arm embedded/4.8 2014q1/bin/../lib/gcc/arm-none-eabi/4.8.3/armv7e-m\libgcc.a(_divdi3.o)
 .data          0x00000000        0x0 c:/program files (x86)/gnu tools arm embedded/4.8 2014q1/bin/../lib/gcc/arm-none-eabi/4.8.3/armv7e-m\libgcc.a(_udivdi3.o)
 .bss           0x00000000        0x0 c:/program files (x86)/gnu tools arm embedded/4.8 2014q1/bin/../lib/gcc/arm-none-eabi/4.8.3/armv7e-m\libgcc.a(_udivdi3.o)
 .ARM.extab     0x00000000        0x0 c:/program files (x86)/gnu tools arm embedded/4.8 2014q1/bin/../lib/gcc/arm-none-eabi/4.8.3/armv7e-m\libgcc.a(_udivdi3.o)

Memory Configuration

Name             Origin             Length             Attributes
rom              0x08000000         0x00100000         xr
ram              0x20000000         0x00020000         xrw
ram1             0x10000000         0x00010000         xrw
*default*        0x00000000         0xffffffff

Linker script and memory map

                0x20020000                _eram = 0x20020000

.text           0x08000000    0x1e2ac
 *(.isr_vector .isr_vector.*)
 .isr_vector    0x08000000      0x188 ..\obj\startup_stm32f4xx.o
                0x08000000                g_pfnVectors
 *(.text .text.* .gnu.linkonce.t.*)
 .text.SYSCFG_ETH_MediaInterfaceConfig
                0x08000188       0x1c ..\obj\stm32f4xx_syscfg.o
                0x08000188                SYSCFG_ETH_MediaInterfaceConfig
 .text.plug_holes
                0x080001a4       0xbc ..\obj\mem.o
 .text.mem_init
                0x08000260       0x84 ..\obj\mem.o
                0x08000260                mem_init
 .text.mem_free
                0x080002e4       0x5c ..\obj\mem.o
                0x080002e4                mem_free
 .text.mem_realloc
                0x08000340      0x174 ..\obj\mem.o
                0x08000340                mem_realloc
 .text.mem_malloc
                0x080004b4      0x144 ..\obj\mem.o
                0x080004b4                mem_malloc
 .text.tcp_tmr  0x080005f8       0x2c ..\obj\tcp.o
                0x080005f8                tcp_tmr
 .text.tcp_close
                0x08000624      0x164 ..\obj\tcp.o
                0x08000624                tcp_close
 .text.tcp_abandon
                0x08000788       0xdc ..\obj\tcp.o
                0x08000788                tcp_abandon
 .text.tcp_bind
                0x08000864      0x17c ..\obj\tcp.o
                0x08000864                tcp_bind
 .text.tcp_accept_null
                0x080009e0       0x20 ..\obj\tcp.o
 .text.tcp_listen_with_backlog
                0x08000a00      0x10c ..\obj\tcp.o
                0x08000a00                tcp_listen_with_backlog
 .text.tcp_update_rcv_ann_wnd
                0x08000b0c       0x84 ..\obj\tcp.o
                0x08000b0c                tcp_update_rcv_ann_wnd
 .text.tcp_recved
                0x08000b90       0x60 ..\obj\tcp.o
                0x08000b90                tcp_recved
 .text.tcp_new_port
                0x08000bf0       0xac ..\obj\tcp.o
 .text.tcp_slowtmr
                0x08000c9c      0x3c8 ..\obj\tcp.o
                0x08000c9c                tcp_slowtmr
 .text.tcp_fasttmr
                0x08001064       0xc0 ..\obj\tcp.o
                0x08001064                tcp_fasttmr
 .text.tcp_segs_free
                0x08001124       0x38 ..\obj\tcp.o
                0x08001124                tcp_segs_free
 .text.tcp_seg_free
                0x0800115c       0x3c ..\obj\tcp.o
                0x0800115c                tcp_seg_free
 .text.tcp_setprio
                0x08001198       0x1c ..\obj\tcp.o
                0x08001198                tcp_setprio
 .text.tcp_recv_null
                0x080011b4       0x48 ..\obj\tcp.o
                0x080011b4                tcp_recv_null
 .text.tcp_kill_prio
                0x080011fc       0x80 ..\obj\tcp.o
 .text.tcp_kill_timewait
                0x0800127c       0x60 ..\obj\tcp.o
 .text.tcp_alloc
                0x080012dc      0x10c ..\obj\tcp.o
                0x080012dc                tcp_alloc
 .text.tcp_new  0x080013e8       0x10 ..\obj\tcp.o
                0x080013e8                tcp_new
 .text.tcp_arg  0x080013f8       0x1c ..\obj\tcp.o
                0x080013f8                tcp_arg
 .text.tcp_recv
                0x08001414       0x1c ..\obj\tcp.o
                0x08001414                tcp_recv
 .text.tcp_sent
                0x08001430       0x1c ..\obj\tcp.o
                0x08001430                tcp_sent
 .text.tcp_err  0x0800144c       0x1c ..\obj\tcp.o
                0x0800144c                tcp_err
 .text.tcp_accept
                0x08001468       0x1c ..\obj\tcp.o
                0x08001468                tcp_accept
 .text.tcp_poll
                0x08001484       0x28 ..\obj\tcp.o
                0x08001484                tcp_poll
 .text.tcp_pcb_purge
                0x080014ac       0x60 ..\obj\tcp.o
                0x080014ac                tcp_pcb_purge
 .text.tcp_pcb_remove
                0x0800150c       0xa8 ..\obj\tcp.o
                0x0800150c                tcp_pcb_remove
 .text.tcp_next_iss
                0x080015b4       0x28 ..\obj\tcp.o
                0x080015b4                tcp_next_iss
 .text.tcp_eff_send_mss
                0x080015dc       0x40 ..\obj\tcp.o
                0x080015dc                tcp_eff_send_mss
 .text.tcp_input
                0x0800161c      0x5cc ..\obj\tcp_in.o
                0x0800161c                tcp_input
 .text.tcp_listen_input
                0x08001be8      0x19c ..\obj\tcp_in.o
 .text.tcp_timewait_input
                0x08001d84       0xe0 ..\obj\tcp_in.o
 .text.tcp_process
                0x08001e64      0x6c0 ..\obj\tcp_in.o
 .text.tcp_receive
                0x08002524      0x884 ..\obj\tcp_in.o
 .text.tcp_parseopt
                0x08002da8      0x100 ..\obj\tcp_in.o
 .text.memp_init
                0x08002ea8       0x98 ..\obj\memp.o
                0x08002ea8                memp_init
 .text.memp_malloc
                0x08002f40       0x44 ..\obj\memp.o
                0x08002f40                memp_malloc
 .text.memp_free
                0x08002f84       0x3c ..\obj\memp.o
                0x08002f84                memp_free
 .text.autoip_handle_arp_conflict
                0x08002fc0       0x40 ..\obj\autoip.o
 .text.autoip_create_addr
                0x08003000       0x88 ..\obj\autoip.o
 .text.autoip_arp_announce
                0x08003088       0x44 ..\obj\autoip.o
 .text.autoip_start
                0x080030cc       0xac ..\obj\autoip.o
                0x080030cc                autoip_start
 .text.autoip_start_probing
                0x08003178       0x88 ..\obj\autoip.o
 .text.autoip_arp_reply
                0x08003200       0xec ..\obj\autoip.o
                0x08003200                autoip_arp_reply
 .text.ip_reass_free_complete_datagram
                0x080032ec       0xb4 ..\obj\ip_frag.o
 .text.ip_reass_remove_oldest_datagram
                0x080033a0       0xb8 ..\obj\ip_frag.o
 .text.ip_reass_enqueue_new_datagram
                0x08003458       0x74 ..\obj\ip_frag.o
 .text.ip_reass_dequeue_datagram
                0x080034cc       0x38 ..\obj\ip_frag.o
 .text.ip_reass_chain_frag_into_datagram_and_validate
                0x08003504      0x1f8 ..\obj\ip_frag.o
 .text.ip_reass
                0x080036fc      0x264 ..\obj\ip_frag.o
                0x080036fc                ip_reass
 .text.ip_frag  0x08003960      0x1a4 ..\obj\ip_frag.o
                0x08003960                ip_frag
 .text.fs_malloc
                0x08003b04       0x64 ..\obj\fs.o
 .text.fs_free  0x08003b68       0x54 ..\obj\fs.o
 .text.fs_open  0x08003bbc       0x7c ..\obj\fs.o
                0x08003bbc                fs_open
 .text.fs_close
                0x08003c38       0x14 ..\obj\fs.o
                0x08003c38                fs_close
 .text.fs_read  0x08003c4c       0x64 ..\obj\fs.o
                0x08003c4c                fs_read
 .text.fs_bytes_left
                0x08003cb0       0x20 ..\obj\fs.o
                0x08003cb0                fs_bytes_left
 .text.Default_Reset_Handler
                0x08003cd0       0x60 ..\obj\startup_stm32f4xx.o
                0x08003cd0                Default_Reset_Handler
                0x08003cd0                Reset_Handler
 .text.Default_Handler
                0x08003d30        0x8 ..\obj\startup_stm32f4xx.o
                0x08003d30                RTC_Alarm_IRQHandler
                0x08003d30                HASH_RNG_IRQHandler
                0x08003d30                EXTI2_IRQHandler
                0x08003d30                TIM8_CC_IRQHandler
                0x08003d30                TIM1_CC_IRQHandler
                0x08003d30                DMA2_Stream5_IRQHandler
                0x08003d30                DMA1_Stream5_IRQHandler
                0x08003d30                PVD_IRQHandler
                0x08003d30                SDIO_IRQHandler
                0x08003d30                TAMP_STAMP_IRQHandler
                0x08003d30                CAN2_RX1_IRQHandler
                0x08003d30                EXTI3_IRQHandler
                0x08003d30                TIM8_TRG_COM_TIM14_IRQHandler
                0x08003d30                TIM1_UP_TIM10_IRQHandler
                0x08003d30                TIM8_UP_TIM13_IRQHandler
                0x08003d30                I2C3_ER_IRQHandler
                0x08003d30                EXTI0_IRQHandler
                0x08003d30                I2C2_EV_IRQHandler
                0x08003d30                DMA1_Stream2_IRQHandler
                0x08003d30                CAN1_RX0_IRQHandler
                0x08003d30                FPU_IRQHandler
                0x08003d30                OTG_HS_WKUP_IRQHandler
                0x08003d30                CAN2_SCE_IRQHandler
                0x08003d30                DMA2_Stream2_IRQHandler
                0x08003d30                SPI1_IRQHandler
                0x08003d30                TIM6_DAC_IRQHandler
                0x08003d30                TIM1_BRK_TIM9_IRQHandler
                0x08003d30                DCMI_IRQHandler
                0x08003d30                CAN2_RX0_IRQHandler
                0x08003d30                DMA2_Stream3_IRQHandler
                0x08003d30                USART6_IRQHandler
                0x08003d30                USART3_IRQHandler
                0x08003d30                CRYP_IRQHandler
                0x08003d30                CAN1_RX1_IRQHandler
                0x08003d30                UART5_IRQHandler
                0x08003d30                DMA2_Stream0_IRQHandler
                0x08003d30                TIM4_IRQHandler
                0x08003d30                I2C1_EV_IRQHandler
                0x08003d30                DMA1_Stream6_IRQHandler
                0x08003d30                DMA1_Stream1_IRQHandler
                0x08003d30                UART4_IRQHandler
                0x08003d30                TIM3_IRQHandler
                0x08003d30                RCC_IRQHandler
                0x08003d30                TIM8_BRK_TIM12_IRQHandler
                0x08003d30                EXTI15_10_IRQHandler
                0x08003d30                ADC_IRQHandler
                0x08003d30                DMA1_Stream7_IRQHandler
                0x08003d30                TIM7_IRQHandler
                0x08003d30                CAN2_TX_IRQHandler
                0x08003d30                TIM5_IRQHandler
                0x08003d30                DMA2_Stream7_IRQHandler
                0x08003d30                I2C3_EV_IRQHandler
                0x08003d30                EXTI9_5_IRQHandler
                0x08003d30                RTC_WKUP_IRQHandler
                0x08003d30                ETH_WKUP_IRQHandler
                0x08003d30                SPI2_IRQHandler
                0x08003d30                OTG_HS_EP1_IN_IRQHandler
                0x08003d30                DMA1_Stream0_IRQHandler
                0x08003d30                CAN1_TX_IRQHandler
                0x08003d30                EXTI4_IRQHandler
                0x08003d30                FSMC_IRQHandler
                0x08003d30                ETH_IRQHandler
                0x08003d30                OTG_HS_EP1_OUT_IRQHandler
                0x08003d30                WWDG_IRQHandler
                0x08003d30                TIM2_IRQHandler
                0x08003d30                OTG_FS_WKUP_IRQHandler
                0x08003d30                TIM1_TRG_COM_TIM11_IRQHandler
                0x08003d30                OTG_HS_IRQHandler
                0x08003d30                EXTI1_IRQHandler
                0x08003d30                USART2_IRQHandler
                0x08003d30                I2C2_ER_IRQHandler
                0x08003d30                DMA2_Stream1_IRQHandler
                0x08003d30                CAN1_SCE_IRQHandler
                0x08003d30                FLASH_IRQHandler
                0x08003d30                DMA2_Stream4_IRQHandler
                0x08003d30                USART1_IRQHandler
                0x08003d30                OTG_FS_IRQHandler
                0x08003d30                SPI3_IRQHandler
                0x08003d30                DMA1_Stream4_IRQHandler
                0x08003d30                I2C1_ER_IRQHandler
                0x08003d30                DMA2_Stream6_IRQHandler
                0x08003d30                DMA1_Stream3_IRQHandler
 .text.STM_EVAL_LEDInit
                0x08003d38       0x5c ..\obj\stm32f4_discovery.o
                0x08003d38                STM_EVAL_LEDInit
 .text.STM_EVAL_LEDOn
                0x08003d94       0x30 ..\obj\stm32f4_discovery.o
                0x08003d94                STM_EVAL_LEDOn
 .text.STM_EVAL_LEDOff
                0x08003dc4       0x30 ..\obj\stm32f4_discovery.o
                0x08003dc4                STM_EVAL_LEDOff
 .text.ETH_Delay
                0x08003df4       0x28 ..\obj\stm32f4x7_eth.o
 .text.ETH_DeInit
                0x08003e1c       0x1c ..\obj\stm32f4x7_eth.o
                0x08003e1c                ETH_DeInit
 .text.ETH_StructInit
                0x08003e38      0x15c ..\obj\stm32f4x7_eth.o
                0x08003e38                ETH_StructInit
 .text.ETH_Init
                0x08003f94      0x434 ..\obj\stm32f4x7_eth.o
                0x08003f94                ETH_Init
 .text.ETH_Start
                0x080043c8       0x24 ..\obj\stm32f4x7_eth.o
                0x080043c8                ETH_Start
 .text.ETH_MACTransmissionCmd
                0x080043ec       0x38 ..\obj\stm32f4x7_eth.o
                0x080043ec                ETH_MACTransmissionCmd
 .text.ETH_MACReceptionCmd
                0x08004424       0x38 ..\obj\stm32f4x7_eth.o
                0x08004424                ETH_MACReceptionCmd
 .text.ETH_MACAddressConfig
                0x0800445c       0x68 ..\obj\stm32f4x7_eth.o
                0x0800445c                ETH_MACAddressConfig
 .text.ETH_Get_Received_Frame
                0x080044c4       0x80 ..\obj\stm32f4x7_eth.o
                0x080044c4                ETH_Get_Received_Frame
 .text.ETH_Prepare_Transmit_Descriptors
                0x08004544      0x16c ..\obj\stm32f4x7_eth.o
                0x08004544                ETH_Prepare_Transmit_Descriptors
 .text.ETH_DMARxDescChainInit
                0x080046b0       0xa8 ..\obj\stm32f4x7_eth.o
                0x080046b0                ETH_DMARxDescChainInit
 .text.ETH_CheckFrameReceived
                0x08004758       0xd4 ..\obj\stm32f4x7_eth.o
                0x08004758                ETH_CheckFrameReceived
 .text.ETH_DMATxDescChainInit
                0x0800482c       0x90 ..\obj\stm32f4x7_eth.o
                0x0800482c                ETH_DMATxDescChainInit
 .text.ETH_DMATxDescChecksumInsertionConfig
                0x080048bc       0x20 ..\obj\stm32f4x7_eth.o
                0x080048bc                ETH_DMATxDescChecksumInsertionConfig
 .text.ETH_SoftwareReset
                0x080048dc       0x24 ..\obj\stm32f4x7_eth.o
                0x080048dc                ETH_SoftwareReset
 .text.ETH_GetSoftwareResetStatus
                0x08004900       0x38 ..\obj\stm32f4x7_eth.o
                0x08004900                ETH_GetSoftwareResetStatus
 .text.ETH_FlushTransmitFIFO
                0x08004938       0x28 ..\obj\stm32f4x7_eth.o
                0x08004938                ETH_FlushTransmitFIFO
 .text.ETH_DMATransmissionCmd
                0x08004960       0x50 ..\obj\stm32f4x7_eth.o
                0x08004960                ETH_DMATransmissionCmd
 .text.ETH_DMAReceptionCmd
                0x080049b0       0x50 ..\obj\stm32f4x7_eth.o
                0x080049b0                ETH_DMAReceptionCmd
 .text.ETH_ReadPHYRegister
                0x08004a00       0x9c ..\obj\stm32f4x7_eth.o
                0x08004a00                ETH_ReadPHYRegister
 .text.ETH_WritePHYRegister
                0x08004a9c       0xa4 ..\obj\stm32f4x7_eth.o
                0x08004a9c                ETH_WritePHYRegister
 .text.ip_addr_isbroadcast
                0x08004b40       0x7c ..\obj\ip_addr.o
                0x08004b40                ip_addr_isbroadcast
 .text.lwip_standard_chksum
                0x08004bbc       0x98 ..\obj\inet_chksum.o
 .text.inet_chksum
                0x08004c54       0x24 ..\obj\inet_chksum.o
                0x08004c54                inet_chksum
 .text.inet_chksum_pbuf
                0x08004c78       0x98 ..\obj\inet_chksum.o
                0x08004c78                inet_chksum_pbuf
 .text.main     0x08004d10       0x3c ..\obj\main.o
                0x08004d10                main
 .text.Time_Update
                0x08004d4c       0x1c ..\obj\main.o
                0x08004d4c                Time_Update
 .text.LCD_LED_Init
                0x08004d68       0x20 ..\obj\main.o
                0x08004d68                LCD_LED_Init
 .text.RCC_GetClocksFreq
                0x08004d88      0x154 ..\obj\stm32f4xx_rcc.o
                0x08004d88                RCC_GetClocksFreq
 .text.RCC_AHB1PeriphClockCmd
                0x08004edc       0x3c ..\obj\stm32f4xx_rcc.o
                0x08004edc                RCC_AHB1PeriphClockCmd
 .text.RCC_APB2PeriphClockCmd
                0x08004f18       0x3c ..\obj\stm32f4xx_rcc.o
                0x08004f18                RCC_APB2PeriphClockCmd
 .text.RCC_AHB1PeriphResetCmd
                0x08004f54       0x3c ..\obj\stm32f4xx_rcc.o
                0x08004f54                RCC_AHB1PeriphResetCmd
 .text.LwIP_Init
                0x08004f90       0x54 ..\obj\netconf.o
                0x08004f90                LwIP_Init
 .text.LwIP_Pkt_Handle
                0x08004fe4       0x10 ..\obj\netconf.o
                0x08004fe4                LwIP_Pkt_Handle
 .text.LwIP_Periodic_Handle
                0x08004ff4       0x98 ..\obj\netconf.o
                0x08004ff4                LwIP_Periodic_Handle
 .text.LwIP_DHCP_Process_Handle
                0x0800508c       0xf4 ..\obj\netconf.o
                0x0800508c                LwIP_DHCP_Process_Handle
 .text.NMI_Handler
                0x08005180        0xc ..\obj\stm32f4xx_it.o
                0x08005180                NMI_Handler
 .text.HardFault_Handler
                0x0800518c        0x8 ..\obj\stm32f4xx_it.o
                0x0800518c                HardFault_Handler
 .text.MemManage_Handler
                0x08005194        0x8 ..\obj\stm32f4xx_it.o
                0x08005194                MemManage_Handler
 .text.BusFault_Handler
                0x0800519c        0x8 ..\obj\stm32f4xx_it.o
                0x0800519c                BusFault_Handler
 .text.UsageFault_Handler
                0x080051a4        0x8 ..\obj\stm32f4xx_it.o
                0x080051a4                UsageFault_Handler
 .text.SVC_Handler
                0x080051ac        0xc ..\obj\stm32f4xx_it.o
                0x080051ac                SVC_Handler
 .text.DebugMon_Handler
                0x080051b8        0xc ..\obj\stm32f4xx_it.o
                0x080051b8                DebugMon_Handler
 .text.PendSV_Handler
                0x080051c4        0xc ..\obj\stm32f4xx_it.o
                0x080051c4                PendSV_Handler
 .text.SysTick_Handler
                0x080051d0        0xc ..\obj\stm32f4xx_it.o
                0x080051d0                SysTick_Handler
 .text.ADC_Init
                0x080051dc       0xa8 ..\obj\stm32f4xx_adc.o
                0x080051dc                ADC_Init
 .text.ADC_StructInit
                0x08005284       0x3c ..\obj\stm32f4xx_adc.o
                0x08005284                ADC_StructInit
 .text.ADC_CommonInit
                0x080052c0       0x50 ..\obj\stm32f4xx_adc.o
                0x080052c0                ADC_CommonInit
 .text.ADC_Cmd  0x08005310       0x38 ..\obj\stm32f4xx_adc.o
                0x08005310                ADC_Cmd
 .text.ADC_RegularChannelConfig
                0x08005348      0x188 ..\obj\stm32f4xx_adc.o
                0x08005348                ADC_RegularChannelConfig
 .text.ADC_SoftwareStartConv
                0x080054d0       0x20 ..\obj\stm32f4xx_adc.o
                0x080054d0                ADC_SoftwareStartConv
 .text.ADC_GetConversionValue
                0x080054f0       0x1c ..\obj\stm32f4xx_adc.o
                0x080054f0                ADC_GetConversionValue
 .text.NVIC_SetPriority
                0x0800550c       0x54 ..\obj\stm32f4x7_eth_bsp.o
 .text.SysTick_Config
                0x08005560       0x44 ..\obj\stm32f4x7_eth_bsp.o
 .text.ETH_BSP_Config
                0x080055a4       0x44 ..\obj\stm32f4x7_eth_bsp.o
                0x080055a4                ETH_BSP_Config
 .text.ETH_MACDMA_Config
                0x080055e8       0xc8 ..\obj\stm32f4x7_eth_bsp.o
 .text.ETH_GPIO_Config
                0x080056b0      0x174 ..\obj\stm32f4x7_eth_bsp.o
 .text.low_level_init
                0x08005824       0xb0 ..\obj\ethernetif.o
 .text.low_level_output
                0x080058d4       0x64 ..\obj\ethernetif.o
 .text.low_level_input
                0x08005938       0xf0 ..\obj\ethernetif.o
 .text.ethernetif_input
                0x08005a28       0x48 ..\obj\ethernetif.o
                0x08005a28                ethernetif_input
 .text.ethernetif_init
                0x08005a70       0x48 ..\obj\ethernetif.o
                0x08005a70                ethernetif_init
 .text.free_etharp_q
                0x08005ab8       0x34 ..\obj\etharp.o
 .text.etharp_tmr
                0x08005aec       0xfc ..\obj\etharp.o
                0x08005aec                etharp_tmr
 .text.find_entry
                0x08005be8      0x2c0 ..\obj\etharp.o
 .text.etharp_send_ip
                0x08005ea8       0x64 ..\obj\etharp.o
 .text.update_arp_entry
                0x08005f0c      0x150 ..\obj\etharp.o
 .text.etharp_ip_input
                0x0800605c       0x50 ..\obj\etharp.o
                0x0800605c                etharp_ip_input
 .text.etharp_arp_input
                0x080060ac      0x1f4 ..\obj\etharp.o
                0x080060ac                etharp_arp_input
 .text.etharp_output
                0x080062a0       0xf8 ..\obj\etharp.o
                0x080062a0                etharp_output
 .text.etharp_query
                0x08006398      0x220 ..\obj\etharp.o
                0x08006398                etharp_query
 .text.etharp_raw
                0x080065b8      0x140 ..\obj\etharp.o
                0x080065b8                etharp_raw
 .text.etharp_request
                0x080066f8       0x44 ..\obj\etharp.o
                0x080066f8                etharp_request
 .text.ethernet_input
                0x0800673c       0x88 ..\obj\etharp.o
                0x0800673c                ethernet_input
 .text.strnstr  0x080067c4       0x70 ..\obj\httpd.o
 .text.http_state_alloc
                0x08006834       0x2c ..\obj\httpd.o
 .text.http_state_free
                0x08006860       0x4c ..\obj\httpd.o
 .text.http_write
                0x080068ac       0x70 ..\obj\httpd.o
 .text.http_close_conn
                0x0800691c       0x60 ..\obj\httpd.o
 .text.extract_uri_parameters
                0x0800697c       0xc4 ..\obj\httpd.o
 .text.get_tag_insert
                0x08006a40      0x104 ..\obj\httpd.o
 .text.http_send_data
                0x08006b44      0x720 ..\obj\httpd.o
 .text.http_get_404_file
                0x08007264       0x6c ..\obj\httpd.o
 .text.http_parse_request
                0x080072d0      0x180 ..\obj\httpd.o
 .text.http_find_file
                0x08007450      0x1bc ..\obj\httpd.o
 .text.http_init_file
                0x0800760c       0xd8 ..\obj\httpd.o
 .text.http_err
                0x080076e4       0x24 ..\obj\httpd.o
 .text.http_sent
                0x08007708       0x38 ..\obj\httpd.o
 .text.http_poll
                0x08007740       0x70 ..\obj\httpd.o
 .text.http_recv
                0x080077b0       0xc8 ..\obj\httpd.o
 .text.http_accept
                0x08007878       0x70 ..\obj\httpd.o
 .text.httpd_init_addr
                0x080078e8       0x48 ..\obj\httpd.o
 .text.httpd_init
                0x08007930       0x18 ..\obj\httpd.o
                0x08007930                httpd_init
 .text.http_set_ssi_handler
                0x08007948       0x34 ..\obj\httpd.o
                0x08007948                http_set_ssi_handler
 .text.http_set_cgi_handlers
                0x0800797c       0x28 ..\obj\httpd.o
                0x0800797c                http_set_cgi_handlers
 .text.ADC_Configuration
                0x080079a4       0x9c ..\obj\httpd_cgi_ssi.o
 .text.ADC_Handler
                0x08007a40      0x150 ..\obj\httpd_cgi_ssi.o
                0x08007a40                ADC_Handler
 .text.LEDS_CGI_Handler
                0x08007b90       0xfc ..\obj\httpd_cgi_ssi.o
                0x08007b90                LEDS_CGI_Handler
 .text.httpd_ssi_init
                0x08007c8c       0x1c ..\obj\httpd_cgi_ssi.o
                0x08007c8c                httpd_ssi_init
 .text.httpd_cgi_init
                0x08007ca8       0x24 ..\obj\httpd_cgi_ssi.o
                0x08007ca8                httpd_cgi_init
 .text.pbuf_alloc
                0x08007ccc      0x1f8 ..\obj\pbuf.o
                0x08007ccc                pbuf_alloc
 .text.pbuf_realloc
                0x08007ec4       0xb0 ..\obj\pbuf.o
                0x08007ec4                pbuf_realloc
 .text.pbuf_header
                0x08007f74       0xe0 ..\obj\pbuf.o
                0x08007f74                pbuf_header
 .text.pbuf_free
                0x08008054       0x88 ..\obj\pbuf.o
                0x08008054                pbuf_free
 .text.pbuf_clen
                0x080080dc       0x30 ..\obj\pbuf.o
                0x080080dc                pbuf_clen
 .text.pbuf_ref
                0x0800810c       0x24 ..\obj\pbuf.o
                0x0800810c                pbuf_ref
 .text.pbuf_cat
                0x08008130       0x5c ..\obj\pbuf.o
                0x08008130                pbuf_cat
 .text.pbuf_chain
                0x0800818c       0x20 ..\obj\pbuf.o
                0x0800818c                pbuf_chain
 .text.pbuf_copy
                0x080081ac      0x100 ..\obj\pbuf.o
                0x080081ac                pbuf_copy
 .text.pbuf_copy_partial
                0x080082ac       0xc4 ..\obj\pbuf.o
                0x080082ac                pbuf_copy_partial
 .text.htons    0x08008370       0x2c ..\obj\inet.o
                0x08008370                htons
 .text.ntohs    0x0800839c       0x1c ..\obj\inet.o
                0x0800839c                ntohs
 .text.htonl    0x080083b8       0x34 ..\obj\inet.o
                0x080083b8                htonl
 .text.ntohl    0x080083ec       0x18 ..\obj\inet.o
                0x080083ec                ntohl
 .text.netif_add
                0x08008404       0x94 ..\obj\netif.o
                0x08008404                netif_add
 .text.netif_set_addr
                0x08008498       0x2c ..\obj\netif.o
                0x08008498                netif_set_addr
 .text.netif_set_ipaddr
                0x080084c4       0xac ..\obj\netif.o
                0x080084c4                netif_set_ipaddr
 .text.netif_set_gw
                0x08008570       0x28 ..\obj\netif.o
                0x08008570                netif_set_gw
 .text.netif_set_netmask
                0x08008598       0x28 ..\obj\netif.o
                0x08008598                netif_set_netmask
 .text.netif_set_default
                0x080085c0       0x1c ..\obj\netif.o
                0x080085c0                netif_set_default
 .text.netif_set_up
                0x080085dc       0x58 ..\obj\netif.o
                0x080085dc                netif_set_up
 .text.netif_set_down
                0x08008634       0x40 ..\obj\netif.o
                0x08008634                netif_set_down
 .text.netif_is_up
                0x08008674       0x28 ..\obj\netif.o
                0x08008674                netif_is_up
 .text.GPIO_Init
                0x0800869c      0x11c ..\obj\stm32f4xx_gpio.o
                0x0800869c                GPIO_Init
 .text.GPIO_SetBits
                0x080087b8       0x1c ..\obj\stm32f4xx_gpio.o
                0x080087b8                GPIO_SetBits
 .text.GPIO_ResetBits
                0x080087d4       0x1c ..\obj\stm32f4xx_gpio.o
                0x080087d4                GPIO_ResetBits
 .text.GPIO_PinAFConfig
                0x080087f0       0x8c ..\obj\stm32f4xx_gpio.o
                0x080087f0                GPIO_PinAFConfig
 .text.SystemInit
                0x0800887c       0x58 ..\obj\system_stm32f4xx.o
                0x0800887c                SystemInit
 .text.SetSysClock
                0x080088d4       0xf4 ..\obj\system_stm32f4xx.o
 .text._sbrk    0x080089c8       0x40 ..\obj\syscalls.o
                0x080089c8                _sbrk
 .text.udp_input
                0x08008a08      0x28c ..\obj\udp.o
                0x08008a08                udp_input
 .text.udp_sendto_if
                0x08008c94      0x128 ..\obj\udp.o
                0x08008c94                udp_sendto_if
 .text.udp_bind
                0x08008dbc       0xc0 ..\obj\udp.o
                0x08008dbc                udp_bind
 .text.udp_connect
                0x08008e7c       0x9c ..\obj\udp.o
                0x08008e7c                udp_connect
 .text.udp_recv
                0x08008f18       0x24 ..\obj\udp.o
                0x08008f18                udp_recv
 .text.udp_remove
                0x08008f3c       0x60 ..\obj\udp.o
                0x08008f3c                udp_remove
 .text.udp_new  0x08008f9c       0x30 ..\obj\udp.o
                0x08008f9c                udp_new
 .text.ip_route
                0x08008fcc       0x70 ..\obj\ip.o
                0x08008fcc                ip_route
 .text.ip_input
                0x0800903c      0x278 ..\obj\ip.o
                0x0800903c                ip_input
 .text.ip_output_if
                0x080092b4      0x194 ..\obj\ip.o
                0x080092b4                ip_output_if
 .text.ip_output
                0x08009448       0x48 ..\obj\ip.o
                0x08009448                ip_output
 .text.icmp_input
                0x08009490      0x200 ..\obj\icmp.o
                0x08009490                icmp_input
 .text.icmp_dest_unreach
                0x08009690       0x20 ..\obj\icmp.o
                0x08009690                icmp_dest_unreach
 .text.icmp_time_exceeded
                0x080096b0       0x20 ..\obj\icmp.o
                0x080096b0                icmp_time_exceeded
 .text.icmp_send_response
                0x080096d0       0xa8 ..\obj\icmp.o
 .text.NVIC_PriorityGroupConfig
                0x08009778       0x24 ..\obj\misc.o
                0x08009778                NVIC_PriorityGroupConfig
 .text.SysTick_CLKSourceConfig
                0x0800979c       0x38 ..\obj\misc.o
                0x0800979c                SysTick_CLKSourceConfig
 .text.dhcp_handle_nak
                0x080097d4       0x44 ..\obj\dhcp.o
 .text.dhcp_check
                0x08009818       0x5c ..\obj\dhcp.o
 .text.dhcp_handle_offer
                0x08009874       0x5c ..\obj\dhcp.o
 .text.dhcp_select
                0x080098d0      0x180 ..\obj\dhcp.o
 .text.dhcp_coarse_tmr
                0x08009a50       0x5c ..\obj\dhcp.o
                0x08009a50                dhcp_coarse_tmr
 .text.dhcp_fine_tmr
                0x08009aac       0x60 ..\obj\dhcp.o
                0x08009aac                dhcp_fine_tmr
 .text.dhcp_timeout
                0x08009b0c       0xc8 ..\obj\dhcp.o
 .text.dhcp_t1_timeout
                0x08009bd4       0x34 ..\obj\dhcp.o
 .text.dhcp_t2_timeout
                0x08009c08       0x34 ..\obj\dhcp.o
 .text.dhcp_handle_ack
                0x08009c3c      0x1a0 ..\obj\dhcp.o
 .text.dhcp_start
                0x08009ddc      0x10c ..\obj\dhcp.o
                0x08009ddc                dhcp_start
 .text.dhcp_arp_reply
                0x08009ee8       0x40 ..\obj\dhcp.o
                0x08009ee8                dhcp_arp_reply
 .text.dhcp_decline
                0x08009f28       0xd4 ..\obj\dhcp.o
 .text.dhcp_discover
                0x08009ffc      0x118 ..\obj\dhcp.o
 .text.dhcp_bind
                0x0800a114      0x168 ..\obj\dhcp.o
 .text.dhcp_renew
                0x0800a27c      0x11c ..\obj\dhcp.o
                0x0800a27c                dhcp_renew
 .text.dhcp_rebind
                0x0800a398      0x11c ..\obj\dhcp.o
 .text.dhcp_reboot
                0x0800a4b4      0x100 ..\obj\dhcp.o
 .text.dhcp_release
                0x0800a5b4      0x12c ..\obj\dhcp.o
                0x0800a5b4                dhcp_release
 .text.dhcp_stop
                0x0800a6e0       0x58 ..\obj\dhcp.o
                0x0800a6e0                dhcp_stop
 .text.dhcp_set_state
                0x0800a738       0x2c ..\obj\dhcp.o
 .text.dhcp_option
                0x0800a764       0x4c ..\obj\dhcp.o
 .text.dhcp_option_byte
                0x0800a7b0       0x30 ..\obj\dhcp.o
 .text.dhcp_option_short
                0x0800a7e0       0x50 ..\obj\dhcp.o
 .text.dhcp_option_long
                0x0800a830       0x8c ..\obj\dhcp.o
 .text.dhcp_unfold_reply
                0x0800a8bc       0xc8 ..\obj\dhcp.o
 .text.dhcp_free_reply
                0x0800a984       0x44 ..\obj\dhcp.o
 .text.dhcp_recv
                0x0800a9c8      0x15c ..\obj\dhcp.o
 .text.dhcp_create_request
                0x0800ab24      0x1e4 ..\obj\dhcp.o
 .text.dhcp_delete_request
                0x0800ad08       0x44 ..\obj\dhcp.o
 .text.dhcp_option_trailer
                0x0800ad4c       0x60 ..\obj\dhcp.o
 .text.dhcp_get_option_ptr
                0x0800adac      0x128 ..\obj\dhcp.o
 .text.dhcp_get_option_byte
                0x0800aed4       0x18 ..\obj\dhcp.o
 .text.dhcp_get_option_long
                0x0800aeec       0x50 ..\obj\dhcp.o
 .text.tcp_output_set_header
                0x0800af3c       0xec ..\obj\tcp_out.o
 .text.tcp_send_ctrl
                0x0800b028       0x2c ..\obj\tcp_out.o
                0x0800b028                tcp_send_ctrl
 .text.tcp_write
                0x0800b054       0x60 ..\obj\tcp_out.o
                0x0800b054                tcp_write
 .text.tcp_enqueue
                0x0800b0b4      0x568 ..\obj\tcp_out.o
                0x0800b0b4                tcp_enqueue
 .text.tcp_send_empty_ack
                0x0800b61c       0x80 ..\obj\tcp_out.o
                0x0800b61c                tcp_send_empty_ack
 .text.tcp_output
                0x0800b69c      0x2c8 ..\obj\tcp_out.o
                0x0800b69c                tcp_output
 .text.tcp_output_segment
                0x0800b964      0x140 ..\obj\tcp_out.o
 .text.tcp_rst  0x0800baa4       0xf0 ..\obj\tcp_out.o
                0x0800baa4                tcp_rst
 .text.tcp_rexmit_rto
                0x0800bb94       0x60 ..\obj\tcp_out.o
                0x0800bb94                tcp_rexmit_rto
 .text.tcp_rexmit
                0x0800bbf4       0x84 ..\obj\tcp_out.o
                0x0800bbf4                tcp_rexmit
 .text.tcp_rexmit_fast
                0x0800bc78       0xac ..\obj\tcp_out.o
                0x0800bc78                tcp_rexmit_fast
 .text.tcp_keepalive
                0x0800bd24       0x58 ..\obj\tcp_out.o
                0x0800bd24                tcp_keepalive
 .text.tcp_zero_window_probe
                0x0800bd7c       0xe0 ..\obj\tcp_out.o
                0x0800bd7c                tcp_zero_window_probe
 .text.raw_input
                0x0800be5c       0xac ..\obj\raw.o
                0x0800be5c                raw_input
 .text          0x0800bf08      0x370 c:/program files (x86)/gnu tools arm embedded/4.8 2014q1/bin/../lib/gcc/arm-none-eabi/4.8.3/armv7e-m\libgcc.a(_arm_addsubdf3.o)
                0x0800bf08                __aeabi_drsub
                0x0800bf10                __aeabi_dsub
                0x0800bf10                __subdf3
                0x0800bf14                __aeabi_dadd
                0x0800bf14                __adddf3
                0x0800c18c                __floatunsidf
                0x0800c18c                __aeabi_ui2d
                0x0800c1ac                __floatsidf
                0x0800c1ac                __aeabi_i2d
                0x0800c1d0                __aeabi_f2d
                0x0800c1d0                __extendsfdf2
                0x0800c20c                __floatundidf
                0x0800c20c                __aeabi_ul2d
                0x0800c21c                __floatdidf
                0x0800c21c                __aeabi_l2d
 .text          0x0800c278      0x424 c:/program files (x86)/gnu tools arm embedded/4.8 2014q1/bin/../lib/gcc/arm-none-eabi/4.8.3/armv7e-m\libgcc.a(_arm_muldivdf3.o)
                0x0800c278                __aeabi_dmul
                0x0800c278                __muldf3
                0x0800c4cc                __divdf3
                0x0800c4cc                __aeabi_ddiv
 .text          0x0800c69c       0x40 c:/program files (x86)/gnu tools arm embedded/4.8 2014q1/bin/../lib/gcc/arm-none-eabi/4.8.3/armv7e-m\libgcc.a(_arm_fixunsdfsi.o)
                0x0800c69c                __aeabi_d2uiz
                0x0800c69c                __fixunsdfsi
 .text.memcmp   0x0800c6dc       0x68 c:/program files (x86)/gnu tools arm embedded/4.8 2014q1/bin/../lib/gcc/arm-none-eabi/4.8.3/../../../../arm-none-eabi/lib/armv7e-m\libg.a(lib_a-memcmp.o)
                0x0800c6dc                memcmp
 .text          0x0800c744      0x134 c:/program files (x86)/gnu tools arm embedded/4.8 2014q1/bin/../lib/gcc/arm-none-eabi/4.8.3/../../../../arm-none-eabi/lib/armv7e-m\libg.a(lib_a-memcpy.o)
                0x0800c744                memcpy
 .text.memset   0x0800c878       0x94 c:/program files (x86)/gnu tools arm embedded/4.8 2014q1/bin/../lib/gcc/arm-none-eabi/4.8.3/../../../../arm-none-eabi/lib/armv7e-m\libg.a(lib_a-memset.o)
                0x0800c878                memset
 .text.sprintf  0x0800c90c       0x4c c:/program files (x86)/gnu tools arm embedded/4.8 2014q1/bin/../lib/gcc/arm-none-eabi/4.8.3/../../../../arm-none-eabi/lib/armv7e-m\libg.a(lib_a-sprintf.o)
                0x0800c90c                sprintf
 .text.strchr   0x0800c958       0xf4 c:/program files (x86)/gnu tools arm embedded/4.8 2014q1/bin/../lib/gcc/arm-none-eabi/4.8.3/../../../../arm-none-eabi/lib/armv7e-m\libg.a(lib_a-strchr.o)
                0x0800c958                strchr
 .text          0x0800ca4c      0x21c c:/program files (x86)/gnu tools arm embedded/4.8 2014q1/bin/../lib/gcc/arm-none-eabi/4.8.3/../../../../arm-none-eabi/lib/armv7e-m\libg.a(lib_a-strcmp.o)
                0x0800ca4c                strcmp
 .text.strlen   0x0800cc68       0x60 c:/program files (x86)/gnu tools arm embedded/4.8 2014q1/bin/../lib/gcc/arm-none-eabi/4.8.3/../../../../arm-none-eabi/lib/armv7e-m\libg.a(lib_a-strlen.o)
                0x0800cc68                strlen
 .text.strncmp  0x0800ccc8       0xb4 c:/program files (x86)/gnu tools arm embedded/4.8 2014q1/bin/../lib/gcc/arm-none-eabi/4.8.3/../../../../arm-none-eabi/lib/armv7e-m\libg.a(lib_a-strncmp.o)
                0x0800ccc8                strncmp
 .text.critical_factorization
                0x0800cd7c       0xbc c:/program files (x86)/gnu tools arm embedded/4.8 2014q1/bin/../lib/gcc/arm-none-eabi/4.8.3/../../../../arm-none-eabi/lib/armv7e-m\libg.a(lib_a-strstr.o)
 .text.two_way_long_needle
                0x0800ce38      0x1ec c:/program files (x86)/gnu tools arm embedded/4.8 2014q1/bin/../lib/gcc/arm-none-eabi/4.8.3/../../../../arm-none-eabi/lib/armv7e-m\libg.a(lib_a-strstr.o)
 .text.strstr   0x0800d024      0x200 c:/program files (x86)/gnu tools arm embedded/4.8 2014q1/bin/../lib/gcc/arm-none-eabi/4.8.3/../../../../arm-none-eabi/lib/armv7e-m\libg.a(lib_a-strstr.o)
                0x0800d024                strstr
 .text._svfprintf_r
                0x0800d224     0x14f8 c:/program files (x86)/gnu tools arm embedded/4.8 2014q1/bin/../lib/gcc/arm-none-eabi/4.8.3/../../../../arm-none-eabi/lib/armv7e-m\libg.a(lib_a-svfprintf.o)
                0x0800d224                _svfprintf_r
 .text.quorem   0x0800e71c      0x130 c:/program files (x86)/gnu tools arm embedded/4.8 2014q1/bin/../lib/gcc/arm-none-eabi/4.8.3/../../../../arm-none-eabi/lib/armv7e-m\libg.a(lib_a-dtoa.o)
 *fill*         0x0800e84c        0x4 
 .text._dtoa_r  0x0800e850      0xe38 c:/program files (x86)/gnu tools arm embedded/4.8 2014q1/bin/../lib/gcc/arm-none-eabi/4.8.3/../../../../arm-none-eabi/lib/armv7e-m\libg.a(lib_a-dtoa.o)
                0x0800e850                _dtoa_r
 .text._localeconv_r
                0x0800f688        0x8 c:/program files (x86)/gnu tools arm embedded/4.8 2014q1/bin/../lib/gcc/arm-none-eabi/4.8.3/../../../../arm-none-eabi/lib/armv7e-m\libg.a(lib_a-locale.o)
                0x0800f688                _localeconv_r
 .text._malloc_r
                0x0800f690      0x538 c:/program files (x86)/gnu tools arm embedded/4.8 2014q1/bin/../lib/gcc/arm-none-eabi/4.8.3/../../../../arm-none-eabi/lib/armv7e-m\libg.a(lib_a-mallocr.o)
                0x0800f690                _malloc_r
 .text.memchr   0x0800fbc8       0x90 c:/program files (x86)/gnu tools arm embedded/4.8 2014q1/bin/../lib/gcc/arm-none-eabi/4.8.3/../../../../arm-none-eabi/lib/armv7e-m\libg.a(lib_a-memchr-stub.o)
                0x0800fbc8                memchr
 .text.__malloc_lock
                0x0800fc58        0x4 c:/program files (x86)/gnu tools arm embedded/4.8 2014q1/bin/../lib/gcc/arm-none-eabi/4.8.3/../../../../arm-none-eabi/lib/armv7e-m\libg.a(lib_a-mlock.o)
                0x0800fc58                __malloc_lock
 .text.__malloc_unlock
                0x0800fc5c        0x4 c:/program files (x86)/gnu tools arm embedded/4.8 2014q1/bin/../lib/gcc/arm-none-eabi/4.8.3/../../../../arm-none-eabi/lib/armv7e-m\libg.a(lib_a-mlock.o)
                0x0800fc5c                __malloc_unlock
 .text._Balloc  0x0800fc60       0x4c c:/program files (x86)/gnu tools arm embedded/4.8 2014q1/bin/../lib/gcc/arm-none-eabi/4.8.3/../../../../arm-none-eabi/lib/armv7e-m\libg.a(lib_a-mprec.o)
                0x0800fc60                _Balloc
 .text._Bfree   0x0800fcac       0x14 c:/program files (x86)/gnu tools arm embedded/4.8 2014q1/bin/../lib/gcc/arm-none-eabi/4.8.3/../../../../arm-none-eabi/lib/armv7e-m\libg.a(lib_a-mprec.o)
                0x0800fcac                _Bfree
 .text.__multadd
                0x0800fcc0       0x98 c:/program files (x86)/gnu tools arm embedded/4.8 2014q1/bin/../lib/gcc/arm-none-eabi/4.8.3/../../../../arm-none-eabi/lib/armv7e-m\libg.a(lib_a-mprec.o)
                0x0800fcc0                __multadd
 .text.__hi0bits
                0x0800fd58       0x40 c:/program files (x86)/gnu tools arm embedded/4.8 2014q1/bin/../lib/gcc/arm-none-eabi/4.8.3/../../../../arm-none-eabi/lib/armv7e-m\libg.a(lib_a-mprec.o)
                0x0800fd58                __hi0bits
 .text.__lo0bits
                0x0800fd98       0x5c c:/program files (x86)/gnu tools arm embedded/4.8 2014q1/bin/../lib/gcc/arm-none-eabi/4.8.3/../../../../arm-none-eabi/lib/armv7e-m\libg.a(lib_a-mprec.o)
                0x0800fd98                __lo0bits
 .text.__i2b    0x0800fdf4       0x14 c:/program files (x86)/gnu tools arm embedded/4.8 2014q1/bin/../lib/gcc/arm-none-eabi/4.8.3/../../../../arm-none-eabi/lib/armv7e-m\libg.a(lib_a-mprec.o)
                0x0800fdf4                __i2b
 .text.__multiply
                0x0800fe08      0x13c c:/program files (x86)/gnu tools arm embedded/4.8 2014q1/bin/../lib/gcc/arm-none-eabi/4.8.3/../../../../arm-none-eabi/lib/armv7e-m\libg.a(lib_a-mprec.o)
                0x0800fe08                __multiply
 .text.__pow5mult
                0x0800ff44       0x9c c:/program files (x86)/gnu tools arm embedded/4.8 2014q1/bin/../lib/gcc/arm-none-eabi/4.8.3/../../../../arm-none-eabi/lib/armv7e-m\libg.a(lib_a-mprec.o)
                0x0800ff44                __pow5mult
 .text.__lshift
                0x0800ffe0       0xbc c:/program files (x86)/gnu tools arm embedded/4.8 2014q1/bin/../lib/gcc/arm-none-eabi/4.8.3/../../../../arm-none-eabi/lib/armv7e-m\libg.a(lib_a-mprec.o)
                0x0800ffe0                __lshift
 .text.__mcmp   0x0801009c       0x48 c:/program files (x86)/gnu tools arm embedded/4.8 2014q1/bin/../lib/gcc/arm-none-eabi/4.8.3/../../../../arm-none-eabi/lib/armv7e-m\libg.a(lib_a-mprec.o)
                0x0801009c                __mcmp
 .text.__mdiff  0x080100e4       0xd4 c:/program files (x86)/gnu tools arm embedded/4.8 2014q1/bin/../lib/gcc/arm-none-eabi/4.8.3/../../../../arm-none-eabi/lib/armv7e-m\libg.a(lib_a-mprec.o)
                0x080100e4                __mdiff
 .text.__d2b    0x080101b8       0xbc c:/program files (x86)/gnu tools arm embedded/4.8 2014q1/bin/../lib/gcc/arm-none-eabi/4.8.3/../../../../arm-none-eabi/lib/armv7e-m\libg.a(lib_a-mprec.o)
                0x080101b8                __d2b
 .text.__fpclassifyd
                0x08010274       0x50 c:/program files (x86)/gnu tools arm embedded/4.8 2014q1/bin/../lib/gcc/arm-none-eabi/4.8.3/../../../../arm-none-eabi/lib/armv7e-m\libg.a(lib_a-s_fpclassify.o)
                0x08010274                __fpclassifyd
 .text._sbrk_r  0x080102c4       0x24 c:/program files (x86)/gnu tools arm embedded/4.8 2014q1/bin/../lib/gcc/arm-none-eabi/4.8.3/../../../../arm-none-eabi/lib/armv7e-m\libg.a(lib_a-sbrkr.o)
                0x080102c4                _sbrk_r
 .text.__ssprint_r
                0x080102e8      0x100 c:/program files (x86)/gnu tools arm embedded/4.8 2014q1/bin/../lib/gcc/arm-none-eabi/4.8.3/../../../../arm-none-eabi/lib/armv7e-m\libg.a(lib_a-svfiprintf.o)
                0x080102e8                __ssprint_r
 .text._calloc_r
                0x080103e8       0x60 c:/program files (x86)/gnu tools arm embedded/4.8 2014q1/bin/../lib/gcc/arm-none-eabi/4.8.3/../../../../arm-none-eabi/lib/armv7e-m\libg.a(lib_a-callocr.o)
                0x080103e8                _calloc_r
 .text._malloc_trim_r
                0x08010448       0x9c c:/program files (x86)/gnu tools arm embedded/4.8 2014q1/bin/../lib/gcc/arm-none-eabi/4.8.3/../../../../arm-none-eabi/lib/armv7e-m\libg.a(lib_a-freer.o)
                0x08010448                _malloc_trim_r
 .text._free_r  0x080104e4      0x19c c:/program files (x86)/gnu tools arm embedded/4.8 2014q1/bin/../lib/gcc/arm-none-eabi/4.8.3/../../../../arm-none-eabi/lib/armv7e-m\libg.a(lib_a-freer.o)
                0x080104e4                _free_r
 .text.memmove  0x08010680       0xc0 c:/program files (x86)/gnu tools arm embedded/4.8 2014q1/bin/../lib/gcc/arm-none-eabi/4.8.3/../../../../arm-none-eabi/lib/armv7e-m\libg.a(lib_a-memmove.o)
                0x08010680                memmove
 .text._realloc_r
                0x08010740      0x3cc c:/program files (x86)/gnu tools arm embedded/4.8 2014q1/bin/../lib/gcc/arm-none-eabi/4.8.3/../../../../arm-none-eabi/lib/armv7e-m\libg.a(lib_a-reallocr.o)
                0x08010740                _realloc_r
 .text          0x08010b0c      0x110 c:/program files (x86)/gnu tools arm embedded/4.8 2014q1/bin/../lib/gcc/arm-none-eabi/4.8.3/armv7e-m\libgcc.a(_arm_cmpdf2.o)
                0x08010b0c                __gtdf2
                0x08010b0c                __gedf2
                0x08010b14                __ltdf2
                0x08010b14                __ledf2
                0x08010b1c                __nedf2
                0x08010b1c                __eqdf2
                0x08010b1c                __cmpdf2
                0x08010b98                __aeabi_cdrcmple
                0x08010ba8                __aeabi_cdcmpeq
                0x08010ba8                __aeabi_cdcmple
                0x08010bb8                __aeabi_dcmpeq
                0x08010bcc                __aeabi_dcmplt
                0x08010be0                __aeabi_dcmple
                0x08010bf4                __aeabi_dcmpge
                0x08010c08                __aeabi_dcmpgt
 .text          0x08010c1c       0x50 c:/program files (x86)/gnu tools arm embedded/4.8 2014q1/bin/../lib/gcc/arm-none-eabi/4.8.3/armv7e-m\libgcc.a(_arm_fixdfsi.o)
                0x08010c1c                __aeabi_d2iz
                0x08010c1c                __fixdfsi
 .text          0x08010c6c       0x2c c:/program files (x86)/gnu tools arm embedded/4.8 2014q1/bin/../lib/gcc/arm-none-eabi/4.8.3/armv7e-m\libgcc.a(_aeabi_uldivmod.o)
                0x08010c6c                __aeabi_uldivmod
 .text          0x08010c98       0x60 c:/program files (x86)/gnu tools arm embedded/4.8 2014q1/bin/../lib/gcc/arm-none-eabi/4.8.3/armv7e-m\libgcc.a(bpabi.o)
                0x08010c98                __gnu_ldivmod_helper
                0x08010cc8                __gnu_uldivmod_helper
 .text          0x08010cf8        0x4 c:/program files (x86)/gnu tools arm embedded/4.8 2014q1/bin/../lib/gcc/arm-none-eabi/4.8.3/armv7e-m\libgcc.a(_dvmd_tls.o)
                0x08010cf8                __aeabi_idiv0
                0x08010cf8                __aeabi_ldiv0
 .text          0x08010cfc      0x298 c:/program files (x86)/gnu tools arm embedded/4.8 2014q1/bin/../lib/gcc/arm-none-eabi/4.8.3/armv7e-m\libgcc.a(_divdi3.o)
                0x08010cfc                __divdi3
 .text          0x08010f94      0x284 c:/program files (x86)/gnu tools arm embedded/4.8 2014q1/bin/../lib/gcc/arm-none-eabi/4.8.3/armv7e-m\libgcc.a(_udivdi3.o)
                0x08010f94                __udivdi3
 *(.glue_7t)
 .glue_7t       0x00000000        0x0 linker stubs
 *(.glue_7)
 .glue_7        0x00000000        0x0 linker stubs
 *(.rodata .rodata* .gnu.linkonce.r.*)
 .rodata        0x08011218       0x90 ..\obj\tcp.o
                0x08011290                tcp_backoff
                0x080112a0                tcp_persist_backoff
 .rodata        0x080112a8       0x28 ..\obj\memp.o
 .rodata        0x080112d0     0xcc94 ..\obj\fs.o
                0x0801ded8                file__STM32F4x7_files_logo_jpg
                0x0801deec                file__STM32F4x7_files_ST_gif
                0x0801df00                file__STM32F4x7_files_stm32_jpg
                0x0801df14                file__404_html
                0x0801df28                file__index_html
                0x0801df3c                file__STM32F4x7ADC_shtml
                0x0801df50                file__STM32F4x7LED_html
 .rodata        0x0801df64       0x60 ..\obj\stm32f4_discovery.o
                0x0801df64                GPIO_PIN
                0x0801df6c                GPIO_CLK
                0x0801df7c                BUTTON_PIN
                0x0801df80                BUTTON_CLK
                0x0801df84                BUTTON_EXTI_LINE
                0x0801df88                BUTTON_PORT_SOURCE
                0x0801df8c                BUTTON_PIN_SOURCE
                0x0801df90                BUTTON_IRQn
                0x0801df94                COM_USART_CLK
                0x0801df9c                COM_TX_PORT_CLK
                0x0801dfa4                COM_RX_PORT_CLK
                0x0801dfac                COM_TX_PIN
                0x0801dfb0                COM_RX_PIN
                0x0801dfb4                COM_TX_PIN_SOURCE
                0x0801dfb8                COM_RX_PIN_SOURCE
                0x0801dfbc                COM_TX_AF
                0x0801dfc0                COM_RX_AF
 .rodata        0x0801dfc4        0x8 ..\obj\ip_addr.o
                0x0801dfc4                ip_addr_any
                0x0801dfc8                ip_addr_broadcast
 .rodata        0x0801dfcc       0x10 ..\obj\netconf.o
 .rodata        0x0801dfdc        0x8 ..\obj\ethernetif.o
 .rodata        0x0801dfe4       0x10 ..\obj\etharp.o
                0x0801dfe4                ethbroadcast
                0x0801dfec                ethzero
 .rodata        0x0801dff4       0xf4 ..\obj\httpd.o
                0x0801e034                g_psDefaultFilenames
                0x0801e084                g_pcTagLeadIn
                0x0801e08c                g_pcTagLeadOut
 .rodata        0x0801e0e8       0x40 ..\obj\httpd_cgi_ssi.o
                0x0801e0f8                LEDS_CGI
 .rodata.zeroes.6760
                0x0801e128       0x10 c:/program files (x86)/gnu tools arm embedded/4.8 2014q1/bin/../lib/gcc/arm-none-eabi/4.8.3/../../../../arm-none-eabi/lib/armv7e-m\libg.a(lib_a-svfprintf.o)
 .rodata.str1.4
                0x0801e138       0x42 c:/program files (x86)/gnu tools arm embedded/4.8 2014q1/bin/../lib/gcc/arm-none-eabi/4.8.3/../../../../arm-none-eabi/lib/armv7e-m\libg.a(lib_a-svfprintf.o)
                                 0x44 (size before relaxing)
 *fill*         0x0801e17a        0x2 
 .rodata.blanks.6759
                0x0801e17c       0x10 c:/program files (x86)/gnu tools arm embedded/4.8 2014q1/bin/../lib/gcc/arm-none-eabi/4.8.3/../../../../arm-none-eabi/lib/armv7e-m\libg.a(lib_a-svfprintf.o)
 .rodata.str1.4
                0x0801e18c       0x10 c:/program files (x86)/gnu tools arm embedded/4.8 2014q1/bin/../lib/gcc/arm-none-eabi/4.8.3/../../../../arm-none-eabi/lib/armv7e-m\libg.a(lib_a-dtoa.o)
                                 0x14 (size before relaxing)
 .rodata.str1.4
                0x0801e19c        0x2 c:/program files (x86)/gnu tools arm embedded/4.8 2014q1/bin/../lib/gcc/arm-none-eabi/4.8.3/../../../../arm-none-eabi/lib/armv7e-m\libg.a(lib_a-impure.o)
                                  0x4 (size before relaxing)
 *fill*         0x0801e19e        0x2 
 .rodata.str1.4
                0x0801e1a0        0xc c:/program files (x86)/gnu tools arm embedded/4.8 2014q1/bin/../lib/gcc/arm-none-eabi/4.8.3/../../../../arm-none-eabi/lib/armv7e-m\libg.a(lib_a-locale.o)
                                 0x14 (size before relaxing)
 *fill*         0x0801e1ac        0x4 
 .rodata.__mprec_tens
                0x0801e1b0       0xc8 c:/program files (x86)/gnu tools arm embedded/4.8 2014q1/bin/../lib/gcc/arm-none-eabi/4.8.3/../../../../arm-none-eabi/lib/armv7e-m\libg.a(lib_a-mprec.o)
                0x0801e1b0                __mprec_tens
 .rodata.__mprec_bigtens
                0x0801e278       0x28 c:/program files (x86)/gnu tools arm embedded/4.8 2014q1/bin/../lib/gcc/arm-none-eabi/4.8.3/../../../../arm-none-eabi/lib/armv7e-m\libg.a(lib_a-mprec.o)
                0x0801e278                __mprec_bigtens
 .rodata.p05.5266
                0x0801e2a0        0xc c:/program files (x86)/gnu tools arm embedded/4.8 2014q1/bin/../lib/gcc/arm-none-eabi/4.8.3/../../../../arm-none-eabi/lib/armv7e-m\libg.a(lib_a-mprec.o)

.vfp11_veneer   0x0801e2ac        0x0
 .vfp11_veneer  0x00000000        0x0 linker stubs

.v4_bx          0x0801e2ac        0x0
 .v4_bx         0x00000000        0x0 linker stubs

.iplt           0x0801e2ac        0x0
 .iplt          0x00000000        0x0 ..\obj\stm32f4xx_syscfg.o

.ARM.extab
 *(.ARM.extab* .gnu.linkonce.armextab.*)
                0x0801e2ac                __exidx_start = .

.ARM.exidx      0x0801e2ac        0x8
 *(.ARM.exidx* .gnu.linkonce.armexidx.*)
 .ARM.exidx     0x0801e2ac        0x8 c:/program files (x86)/gnu tools arm embedded/4.8 2014q1/bin/../lib/gcc/arm-none-eabi/4.8.3/armv7e-m\libgcc.a(_divdi3.o)
 .ARM.exidx     0x0801e2b4        0x0 c:/program files (x86)/gnu tools arm embedded/4.8 2014q1/bin/../lib/gcc/arm-none-eabi/4.8.3/armv7e-m\libgcc.a(_udivdi3.o)
                                  0x8 (size before relaxing)
                0x0801e2b4                __exidx_end = .

.rel.dyn        0x0801e2b4        0x0
 .rel.iplt      0x00000000        0x0 ..\obj\stm32f4xx_syscfg.o
                0x0801e2b4                . = ALIGN (0x4)
                0x0801e2b4                _etext = .
                0x0801e2b4                _sidata = .

.data           0x20000000      0x90c load address 0x0801e2b4
                0x20000000                _sdata = .
 *(.data .data.*)
 .data          0x20000000       0x34 ..\obj\tcp.o
                0x20000000                tcp_state_str
 .data          0x20000034       0x2c ..\obj\stm32f4_discovery.o
                0x20000034                GPIO_PORT
                0x20000044                BUTTON_PORT
                0x20000048                COM_USART
                0x20000050                COM_TX_PORT
                0x20000058                COM_RX_PORT
 .data          0x20000060       0x10 ..\obj\stm32f4xx_rcc.o
 .data          0x20000070        0x4 ..\obj\stm32f4x7_eth_bsp.o
                0x20000070                EthInitStatus
 .data          0x20000074       0x10 ..\obj\httpd.o
                0x20000074                g_pcSSIExtensions
 .data          0x20000084        0xc ..\obj\httpd_cgi_ssi.o
                0x20000084                ADC_not_configured
                0x20000088                TAGCHAR
                0x2000008c                TAGS
 .data          0x20000090        0x4 ..\obj\dhcp.o
 *fill*         0x20000094        0x4 
 .data.impure_data
                0x20000098      0x428 c:/program files (x86)/gnu tools arm embedded/4.8 2014q1/bin/../lib/gcc/arm-none-eabi/4.8.3/../../../../arm-none-eabi/lib/armv7e-m\libg.a(lib_a-impure.o)
 .data._impure_ptr
                0x200004c0        0x4 c:/program files (x86)/gnu tools arm embedded/4.8 2014q1/bin/../lib/gcc/arm-none-eabi/4.8.3/../../../../arm-none-eabi/lib/armv7e-m\libg.a(lib_a-impure.o)
                0x200004c0                _impure_ptr
 .data.lconv    0x200004c4       0x38 c:/program files (x86)/gnu tools arm embedded/4.8 2014q1/bin/../lib/gcc/arm-none-eabi/4.8.3/../../../../arm-none-eabi/lib/armv7e-m\libg.a(lib_a-locale.o)
 .data.__malloc_av_
                0x200004fc      0x408 c:/program files (x86)/gnu tools arm embedded/4.8 2014q1/bin/../lib/gcc/arm-none-eabi/4.8.3/../../../../arm-none-eabi/lib/armv7e-m\libg.a(lib_a-mallocr.o)
                0x200004fc                __malloc_av_
 .data.__malloc_trim_threshold
                0x20000904        0x4 c:/program files (x86)/gnu tools arm embedded/4.8 2014q1/bin/../lib/gcc/arm-none-eabi/4.8.3/../../../../arm-none-eabi/lib/armv7e-m\libg.a(lib_a-mallocr.o)
                0x20000904                __malloc_trim_threshold
 .data.__malloc_sbrk_base
                0x20000908        0x4 c:/program files (x86)/gnu tools arm embedded/4.8 2014q1/bin/../lib/gcc/arm-none-eabi/4.8.3/../../../../arm-none-eabi/lib/armv7e-m\libg.a(lib_a-mallocr.o)
                0x20000908                __malloc_sbrk_base
                0x2000090c                . = ALIGN (0x4)
                0x2000090c                _edata = .

.igot.plt       0x2000090c        0x0 load address 0x0801ebc0
 .igot.plt      0x00000000        0x0 ..\obj\stm32f4xx_syscfg.o

.bss            0x2000090c     0x9610 load address 0x0801ebc0
                0x2000090c                _sbss = .
 *(.bss .bss.*)
 .bss           0x2000090c     0x2824 ..\obj\mem.o
 .bss           0x20003130        0x1 ..\obj\tcp.o
 *fill*         0x20003131        0x3 
 .bss           0x20003134       0x30 ..\obj\tcp_in.o
 .bss           0x20003164     0x2438 ..\obj\memp.o
 .bss           0x2000559c      0x5e8 ..\obj\ip_frag.o
 .bss           0x20005b84        0x4 ..\obj\main.o
                0x20005b84                LocalTime
 .bss           0x20005b88       0x18 ..\obj\netconf.o
                0x20005b88                TCPTimer
                0x20005b8c                ARPTimer
                0x20005b90                IPaddress
                0x20005b94                DHCPfineTimer
                0x20005b98                DHCPcoarseTimer
                0x20005b9c                DHCP_state
 .bss           0x20005ba0       0xcc ..\obj\etharp.o
 .bss           0x20005c6c      0x414 ..\obj\httpd.o
                0x2000606c                g_pfnSSIHandler
                0x20006070                g_iNumTags
                0x20006074                g_ppcTags
                0x20006078                g_pCGIs
                0x2000607c                g_iNumCGIs
 .bss           0x20006080        0x1 ..\obj\netif.o
 *fill*         0x20006081        0x3 
 .bss           0x20006084        0x4 ..\obj\syscalls.o
 .bss           0x20006088        0x2 ..\obj\ip.o
 *fill*         0x2000608a        0x2 
 .bss           0x2000608c        0x4 ..\obj\raw.o
 .bss.__malloc_max_total_mem
                0x20006090        0x4 c:/program files (x86)/gnu tools arm embedded/4.8 2014q1/bin/../lib/gcc/arm-none-eabi/4.8.3/../../../../arm-none-eabi/lib/armv7e-m\libg.a(lib_a-mallocr.o)
                0x20006090                __malloc_max_total_mem
 .bss.__malloc_max_sbrked_mem
                0x20006094        0x4 c:/program files (x86)/gnu tools arm embedded/4.8 2014q1/bin/../lib/gcc/arm-none-eabi/4.8.3/../../../../arm-none-eabi/lib/armv7e-m\libg.a(lib_a-mallocr.o)
                0x20006094                __malloc_max_sbrked_mem
 .bss.__malloc_top_pad
                0x20006098        0x4 c:/program files (x86)/gnu tools arm embedded/4.8 2014q1/bin/../lib/gcc/arm-none-eabi/4.8.3/../../../../arm-none-eabi/lib/armv7e-m\libg.a(lib_a-mallocr.o)
                0x20006098                __malloc_top_pad
 .bss.__malloc_current_mallinfo
                0x2000609c       0x28 c:/program files (x86)/gnu tools arm embedded/4.8 2014q1/bin/../lib/gcc/arm-none-eabi/4.8.3/../../../../arm-none-eabi/lib/armv7e-m\libg.a(lib_a-mallocr.o)
                0x2000609c                __malloc_current_mallinfo
 *(COMMON)
 COMMON         0x200060c4       0x18 ..\obj\tcp.o
                0x200060c4                tcp_active_pcbs
                0x200060c8                tcp_ticks
                0x200060cc                tcp_listen_pcbs
                0x200060d0                tcp_tmp_pcb
                0x200060d4                tcp_bound_pcbs
                0x200060d8                tcp_tw_pcbs
 COMMON         0x200060dc        0x4 ..\obj\tcp_in.o
                0x200060dc                tcp_input_pcb
 COMMON         0x200060e0       0xf0 ..\obj\fs.o
                0x200060e0                fs_memory
 COMMON         0x200061d0     0x3ce4 ..\obj\stm32f4x7_eth.o
                0x200061d0                RX_Frame_Descriptor
                0x200061dc                DMARxDescToGet
                0x200061e0                DMATxDescToSet
                0x200061e4                DMATxDscrTab
                0x20006284                Rx_Buff
                0x20008048                Frame_Rx_index
                0x2000804c                DMA_RX_FRAME_infos
                0x20008050                DMARxDscrTab
                0x200080f0                Tx_Buff
 COMMON         0x20009eb4       0x44 ..\obj\netconf.o
                0x20009eb4                netif
 COMMON         0x20009ef8        0xc ..\obj\httpd_cgi_ssi.o
                0x20009ef8                ADC_Page_SSI_Handler
                0x20009efc                CGI_TAB
 COMMON         0x20009f04        0x8 ..\obj\netif.o
                0x20009f04                netif_list
                0x20009f08                netif_default
 COMMON         0x20009f0c        0x4 ..\obj\udp.o
                0x20009f0c                udp_pcbs
 COMMON         0x20009f10        0x8 ..\obj\ip.o
                0x20009f10                current_netif
                0x20009f14                current_header
 COMMON         0x20009f18        0x4 c:/program files (x86)/gnu tools arm embedded/4.8 2014q1/bin/../lib/gcc/arm-none-eabi/4.8.3/../../../../arm-none-eabi/lib/armv7e-m\libg.a(lib_a-reent.o)
                0x20009f18                errno
                0x20009f1c                . = ALIGN (0x4)
                0x20009f1c                _ebss = .

.co_stack       0x20009f1c      0x804 load address 0x080281d0
                0x20009f20                . = ALIGN (0x8)
 *fill*         0x20009f1c        0x4 
 *(.co_stack .co_stack.*)
 .co_stack      0x20009f20      0x800 ..\obj\startup_stm32f4xx.o
                0x20009f20                pulStack
                0x2000a720                . = ALIGN (0x4)
                0x2000a720                _end = .
LOAD ..\obj\stm32f4xx_syscfg.o
LOAD ..\obj\mem.o
LOAD ..\obj\stm32f4xx_sdio.o
LOAD ..\obj\tcp.o
LOAD ..\obj\err.o
LOAD ..\obj\tcp_in.o
LOAD ..\obj\stm32f4xx_usart.o
LOAD ..\obj\stm32f4xx_pwr.o
LOAD ..\obj\slipif.o
LOAD ..\obj\memp.o
LOAD ..\obj\autoip.o
LOAD ..\obj\ip_frag.o
LOAD ..\obj\netbuf.o
LOAD ..\obj\tcpip.o
LOAD ..\obj\stm32f4xx_dac.o
LOAD ..\obj\fs.o
LOAD ..\obj\startup_stm32f4xx.o
LOAD ..\obj\stm32f4_discovery.o
LOAD ..\obj\stm32f4x7_eth.o
LOAD ..\obj\sys.o
LOAD ..\obj\ip_addr.o
LOAD ..\obj\inet_chksum.o
LOAD ..\obj\main.o
LOAD ..\obj\stm32f4xx_rcc.o
LOAD ..\obj\netconf.o
LOAD ..\obj\stm32f4xx_it.o
LOAD ..\obj\netdb.o
LOAD ..\obj\init.o
LOAD ..\obj\stm32f4xx_adc.o
LOAD ..\obj\stm32f4x7_eth_bsp.o
LOAD ..\obj\ethernetif.o
LOAD ..\obj\etharp.o
LOAD ..\obj\httpd.o
LOAD ..\obj\httpd_cgi_ssi.o
LOAD ..\obj\pbuf.o
LOAD ..\obj\stats.o
LOAD ..\obj\inet.o
LOAD ..\obj\netif.o
LOAD ..\obj\api_msg.o
LOAD ..\obj\stm32f4xx_gpio.o
LOAD ..\obj\system_stm32f4xx.o
LOAD ..\obj\syscalls.o
LOAD ..\obj\stm32f4xx_dma.o
LOAD ..\obj\sockets.o
LOAD ..\obj\igmp.o
LOAD ..\obj\udp.o
LOAD ..\obj\ip.o
LOAD ..\obj\stm32f4xx_exti.o
LOAD ..\obj\icmp.o
LOAD ..\obj\dns.o
LOAD ..\obj\netifapi.o
LOAD ..\obj\misc.o
LOAD ..\obj\api_lib.o
LOAD ..\obj\dhcp.o
LOAD ..\obj\tcp_out.o
LOAD ..\obj\loopif.o
LOAD ..\obj\raw.o
START GROUP
LOAD c:/program files (x86)/gnu tools arm embedded/4.8 2014q1/bin/../lib/gcc/arm-none-eabi/4.8.3/armv7e-m\libgcc.a
LOAD c:/program files (x86)/gnu tools arm embedded/4.8 2014q1/bin/../lib/gcc/arm-none-eabi/4.8.3/../../../../arm-none-eabi/lib/armv7e-m\libg.a
LOAD c:/program files (x86)/gnu tools arm embedded/4.8 2014q1/bin/../lib/gcc/arm-none-eabi/4.8.3/../../../../arm-none-eabi/lib/armv7e-m\libc.a
END GROUP
OUTPUT(LAN8720.elf elf32-littlearm)

.debug_info     0x00000000    0x132ed
 .debug_info    0x00000000      0x26c ..\obj\stm32f4xx_syscfg.o
 .debug_info    0x0000026c      0x345 ..\obj\mem.o
 .debug_info    0x000005b1     0x1172 ..\obj\tcp.o
 .debug_info    0x00001723      0xc1a ..\obj\tcp_in.o
 .debug_info    0x0000233d      0x253 ..\obj\memp.o
 .debug_info    0x00002590      0x682 ..\obj\autoip.o
 .debug_info    0x00002c12      0x8d8 ..\obj\ip_frag.o
 .debug_info    0x000034ea      0x50a ..\obj\fs.o
 .debug_info    0x000039f4       0xed ..\obj\startup_stm32f4xx.o
 .debug_info    0x00003ae1      0xd79 ..\obj\stm32f4_discovery.o
 .debug_info    0x0000485a     0x190f ..\obj\stm32f4x7_eth.o
 .debug_info    0x00006169      0x32e ..\obj\ip_addr.o
 .debug_info    0x00006497      0x2a0 ..\obj\inet_chksum.o
 .debug_info    0x00006737      0x166 ..\obj\main.o
 .debug_info    0x0000689d      0xc4d ..\obj\stm32f4xx_rcc.o
 .debug_info    0x000074ea      0x7a8 ..\obj\netconf.o
 .debug_info    0x00007c92      0x12f ..\obj\stm32f4xx_it.o
 .debug_info    0x00007dc1      0xc38 ..\obj\stm32f4xx_adc.o
 .debug_info    0x000089f9      0xb7a ..\obj\stm32f4x7_eth_bsp.o
 .debug_info    0x00009573      0xaa1 ..\obj\ethernetif.o
 .debug_info    0x0000a014      0xf20 ..\obj\etharp.o
 .debug_info    0x0000af34     0x11a2 ..\obj\httpd.o
 .debug_info    0x0000c0d6      0x717 ..\obj\httpd_cgi_ssi.o
 .debug_info    0x0000c7ed      0x658 ..\obj\pbuf.o
 .debug_info    0x0000ce45      0x2e1 ..\obj\inet.o
 .debug_info    0x0000d126      0xf10 ..\obj\netif.o
 .debug_info    0x0000e036      0x602 ..\obj\stm32f4xx_gpio.o
 .debug_info    0x0000e638      0x592 ..\obj\system_stm32f4xx.o
 .debug_info    0x0000ebca      0x3ee ..\obj\syscalls.o
 .debug_info    0x0000efb8      0xaea ..\obj\udp.o
 .debug_info    0x0000faa2      0x8e9 ..\obj\ip.o
 .debug_info    0x0001038b      0x5c0 ..\obj\icmp.o
 .debug_info    0x0001094b      0x53d ..\obj\misc.o
 .debug_info    0x00010e88     0x10b7 ..\obj\dhcp.o
 .debug_info    0x00011f3f      0xcef ..\obj\tcp_out.o
 .debug_info    0x00012c2e      0x6bf ..\obj\raw.o

.debug_abbrev   0x00000000     0x39c0
 .debug_abbrev  0x00000000      0x131 ..\obj\stm32f4xx_syscfg.o
 .debug_abbrev  0x00000131      0x15e ..\obj\mem.o
 .debug_abbrev  0x0000028f      0x2c4 ..\obj\tcp.o
 .debug_abbrev  0x00000553      0x1e9 ..\obj\tcp_in.o
 .debug_abbrev  0x0000073c      0x11e ..\obj\memp.o
 .debug_abbrev  0x0000085a      0x1ae ..\obj\autoip.o
 .debug_abbrev  0x00000a08      0x1e8 ..\obj\ip_frag.o
 .debug_abbrev  0x00000bf0      0x178 ..\obj\fs.o
 .debug_abbrev  0x00000d68       0xb0 ..\obj\startup_stm32f4xx.o
 .debug_abbrev  0x00000e18      0x1ca ..\obj\stm32f4_discovery.o
 .debug_abbrev  0x00000fe2      0x240 ..\obj\stm32f4x7_eth.o
 .debug_abbrev  0x00001222       0xfc ..\obj\ip_addr.o
 .debug_abbrev  0x0000131e      0x13c ..\obj\inet_chksum.o
 .debug_abbrev  0x0000145a       0xe9 ..\obj\main.o
 .debug_abbrev  0x00001543      0x1e3 ..\obj\stm32f4xx_rcc.o
 .debug_abbrev  0x00001726      0x157 ..\obj\netconf.o
 .debug_abbrev  0x0000187d       0x7d ..\obj\stm32f4xx_it.o
 .debug_abbrev  0x000018fa      0x196 ..\obj\stm32f4xx_adc.o
 .debug_abbrev  0x00001a90      0x1cb ..\obj\stm32f4x7_eth_bsp.o
 .debug_abbrev  0x00001c5b      0x21c ..\obj\ethernetif.o
 .debug_abbrev  0x00001e77      0x20a ..\obj\etharp.o
 .debug_abbrev  0x00002081      0x238 ..\obj\httpd.o
 .debug_abbrev  0x000022b9      0x18d ..\obj\httpd_cgi_ssi.o
 .debug_abbrev  0x00002446      0x1a3 ..\obj\pbuf.o
 .debug_abbrev  0x000025e9      0x130 ..\obj\inet.o
 .debug_abbrev  0x00002719      0x256 ..\obj\netif.o
 .debug_abbrev  0x0000296f      0x1a3 ..\obj\stm32f4xx_gpio.o
 .debug_abbrev  0x00002b12      0x136 ..\obj\system_stm32f4xx.o
 .debug_abbrev  0x00002c48       0xe2 ..\obj\syscalls.o
 .debug_abbrev  0x00002d2a      0x20c ..\obj\udp.o
 .debug_abbrev  0x00002f36      0x195 ..\obj\ip.o
 .debug_abbrev  0x000030cb      0x1a3 ..\obj\icmp.o
 .debug_abbrev  0x0000326e      0x145 ..\obj\misc.o
 .debug_abbrev  0x000033b3      0x229 ..\obj\dhcp.o
 .debug_abbrev  0x000035dc      0x224 ..\obj\tcp_out.o
 .debug_abbrev  0x00003800      0x1c0 ..\obj\raw.o

.debug_aranges  0x00000000     0x1208
 .debug_aranges
                0x00000000       0x48 ..\obj\stm32f4xx_syscfg.o
 .debug_aranges
                0x00000048       0x48 ..\obj\mem.o
 .debug_aranges
                0x00000090      0x110 ..\obj\tcp.o
 .debug_aranges
                0x000001a0       0x48 ..\obj\tcp_in.o
 .debug_aranges
                0x000001e8       0x30 ..\obj\memp.o
 .debug_aranges
                0x00000218       0x78 ..\obj\autoip.o
 .debug_aranges
                0x00000290       0x58 ..\obj\ip_frag.o
 .debug_aranges
                0x000002e8       0x48 ..\obj\fs.o
 .debug_aranges
                0x00000330       0x28 ..\obj\startup_stm32f4xx.o
 .debug_aranges
                0x00000358       0x70 ..\obj\stm32f4_discovery.o
 .debug_aranges
                0x000003c8      0x2b8 ..\obj\stm32f4x7_eth.o
 .debug_aranges
                0x00000680       0x20 ..\obj\ip_addr.o
 .debug_aranges
                0x000006a0       0x38 ..\obj\inet_chksum.o
 .debug_aranges
                0x000006d8       0x38 ..\obj\main.o
 .debug_aranges
                0x00000710      0x178 ..\obj\stm32f4xx_rcc.o
 .debug_aranges
                0x00000888       0x38 ..\obj\netconf.o
 .debug_aranges
                0x000008c0       0x60 ..\obj\stm32f4xx_it.o
 .debug_aranges
                0x00000920      0x148 ..\obj\stm32f4xx_adc.o
 .debug_aranges
                0x00000a68       0x40 ..\obj\stm32f4x7_eth_bsp.o
 .debug_aranges
                0x00000aa8       0x40 ..\obj\ethernetif.o
 .debug_aranges
                0x00000ae8       0x80 ..\obj\etharp.o
 .debug_aranges
                0x00000b68       0xc0 ..\obj\httpd.o
 .debug_aranges
                0x00000c28       0x40 ..\obj\httpd_cgi_ssi.o
 .debug_aranges
                0x00000c68       0x80 ..\obj\pbuf.o
 .debug_aranges
                0x00000ce8       0x50 ..\obj\inet.o
 .debug_aranges
                0x00000d38       0x90 ..\obj\netif.o
 .debug_aranges
                0x00000dc8       0x88 ..\obj\stm32f4xx_gpio.o
 .debug_aranges
                0x00000e50       0x30 ..\obj\system_stm32f4xx.o
 .debug_aranges
                0x00000e80       0x60 ..\obj\syscalls.o
 .debug_aranges
                0x00000ee0       0x68 ..\obj\udp.o
 .debug_aranges
                0x00000f48       0x38 ..\obj\ip.o
 .debug_aranges
                0x00000f80       0x38 ..\obj\icmp.o
 .debug_aranges
                0x00000fb8       0x40 ..\obj\misc.o
 .debug_aranges
                0x00000ff8      0x138 ..\obj\dhcp.o
 .debug_aranges
                0x00001130       0x80 ..\obj\tcp_out.o
 .debug_aranges
                0x000011b0       0x58 ..\obj\raw.o

.debug_ranges   0x00000000      0xfc8
 .debug_ranges  0x00000000       0x38 ..\obj\stm32f4xx_syscfg.o
 .debug_ranges  0x00000038       0x38 ..\obj\mem.o
 .debug_ranges  0x00000070      0x100 ..\obj\tcp.o
 .debug_ranges  0x00000170       0x38 ..\obj\tcp_in.o
 .debug_ranges  0x000001a8       0x20 ..\obj\memp.o
 .debug_ranges  0x000001c8       0x68 ..\obj\autoip.o
 .debug_ranges  0x00000230       0x48 ..\obj\ip_frag.o
 .debug_ranges  0x00000278       0x38 ..\obj\fs.o
 .debug_ranges  0x000002b0       0x18 ..\obj\startup_stm32f4xx.o
 .debug_ranges  0x000002c8       0x60 ..\obj\stm32f4_discovery.o
 .debug_ranges  0x00000328      0x2a8 ..\obj\stm32f4x7_eth.o
 .debug_ranges  0x000005d0       0x10 ..\obj\ip_addr.o
 .debug_ranges  0x000005e0       0x28 ..\obj\inet_chksum.o
 .debug_ranges  0x00000608       0x28 ..\obj\main.o
 .debug_ranges  0x00000630      0x168 ..\obj\stm32f4xx_rcc.o
 .debug_ranges  0x00000798       0x28 ..\obj\netconf.o
 .debug_ranges  0x000007c0       0x50 ..\obj\stm32f4xx_it.o
 .debug_ranges  0x00000810      0x138 ..\obj\stm32f4xx_adc.o
 .debug_ranges  0x00000948       0x30 ..\obj\stm32f4x7_eth_bsp.o
 .debug_ranges  0x00000978       0x30 ..\obj\ethernetif.o
 .debug_ranges  0x000009a8       0x70 ..\obj\etharp.o
 .debug_ranges  0x00000a18       0xb0 ..\obj\httpd.o
 .debug_ranges  0x00000ac8       0x30 ..\obj\httpd_cgi_ssi.o
 .debug_ranges  0x00000af8       0x70 ..\obj\pbuf.o
 .debug_ranges  0x00000b68       0x40 ..\obj\inet.o
 .debug_ranges  0x00000ba8       0x80 ..\obj\netif.o
 .debug_ranges  0x00000c28       0x78 ..\obj\stm32f4xx_gpio.o
 .debug_ranges  0x00000ca0       0x20 ..\obj\system_stm32f4xx.o
 .debug_ranges  0x00000cc0       0x50 ..\obj\syscalls.o
 .debug_ranges  0x00000d10       0x58 ..\obj\udp.o
 .debug_ranges  0x00000d68       0x28 ..\obj\ip.o
 .debug_ranges  0x00000d90       0x28 ..\obj\icmp.o
 .debug_ranges  0x00000db8       0x30 ..\obj\misc.o
 .debug_ranges  0x00000de8      0x128 ..\obj\dhcp.o
 .debug_ranges  0x00000f10       0x70 ..\obj\tcp_out.o
 .debug_ranges  0x00000f80       0x48 ..\obj\raw.o

.debug_line     0x00000000     0x8506
 .debug_line    0x00000000      0x23e ..\obj\stm32f4xx_syscfg.o
 .debug_line    0x0000023e      0x217 ..\obj\mem.o
 .debug_line    0x00000455      0x745 ..\obj\tcp.o
 .debug_line    0x00000b9a      0x685 ..\obj\tcp_in.o
 .debug_line    0x0000121f      0x175 ..\obj\memp.o
 .debug_line    0x00001394      0x375 ..\obj\autoip.o
 .debug_line    0x00001709      0x399 ..\obj\ip_frag.o
 .debug_line    0x00001aa2      0x1ac ..\obj\fs.o
 .debug_line    0x00001c4e       0xaa ..\obj\startup_stm32f4xx.o
 .debug_line    0x00001cf8      0x3bd ..\obj\stm32f4_discovery.o
 .debug_line    0x000020b5      0xafb ..\obj\stm32f4x7_eth.o
 .debug_line    0x00002bb0      0x18f ..\obj\ip_addr.o
 .debug_line    0x00002d3f      0x1ed ..\obj\inet_chksum.o
 .debug_line    0x00002f2c      0x225 ..\obj\main.o
 .debug_line    0x00003151      0x5c9 ..\obj\stm32f4xx_rcc.o
 .debug_line    0x0000371a      0x30b ..\obj\netconf.o
 .debug_line    0x00003a25      0x235 ..\obj\stm32f4xx_it.o
 .debug_line    0x00003c5a      0x581 ..\obj\stm32f4xx_adc.o
 .debug_line    0x000041db      0x378 ..\obj\stm32f4x7_eth_bsp.o
 .debug_line    0x00004553      0x3c2 ..\obj\ethernetif.o
 .debug_line    0x00004915      0x4e4 ..\obj\etharp.o
 .debug_line    0x00004df9      0x7ad ..\obj\httpd.o
 .debug_line    0x000055a6      0x3af ..\obj\httpd_cgi_ssi.o
 .debug_line    0x00005955      0x3d8 ..\obj\pbuf.o
 .debug_line    0x00005d2d      0x234 ..\obj\inet.o
 .debug_line    0x00005f61      0x39b ..\obj\netif.o
 .debug_line    0x000062fc      0x36e ..\obj\stm32f4xx_gpio.o
 .debug_line    0x0000666a      0x206 ..\obj\system_stm32f4xx.o
 .debug_line    0x00006870      0x17b ..\obj\syscalls.o
 .debug_line    0x000069eb      0x3bf ..\obj\udp.o
 .debug_line    0x00006daa      0x2e2 ..\obj\ip.o
 .debug_line    0x0000708c      0x20e ..\obj\icmp.o
 .debug_line    0x0000729a      0x274 ..\obj\misc.o
 .debug_line    0x0000750e      0x85c ..\obj\dhcp.o
 .debug_line    0x00007d6a      0x500 ..\obj\tcp_out.o
 .debug_line    0x0000826a      0x29c ..\obj\raw.o

.debug_str      0x00000000     0x5dfb
 .debug_str     0x00000000      0x29e ..\obj\stm32f4xx_syscfg.o
                                0x2fc (size before relaxing)
 .debug_str     0x0000029e      0x13f ..\obj\mem.o
                                0x25d (size before relaxing)
 .debug_str     0x000003dd      0x5b9 ..\obj\tcp.o
                                0x823 (size before relaxing)
 .debug_str     0x00000996      0x155 ..\obj\tcp_in.o
                                0x6ba (size before relaxing)
 .debug_str     0x00000aeb       0x9a ..\obj\memp.o
                                0x297 (size before relaxing)
 .debug_str     0x00000b85      0x1e2 ..\obj\autoip.o
                                0x40c (size before relaxing)
 .debug_str     0x00000d67      0x276 ..\obj\ip_frag.o
                                0x57b (size before relaxing)
 .debug_str     0x00000fdd      0x309 ..\obj\fs.o
                                0x483 (size before relaxing)
 .debug_str     0x000012e6       0xb8 ..\obj\startup_stm32f4xx.o
                                0x14f (size before relaxing)
 .debug_str     0x0000139e      0xd25 ..\obj\stm32f4_discovery.o
                                0xeab (size before relaxing)
 .debug_str     0x000020c3     0x1221 ..\obj\stm32f4x7_eth.o
                               0x146e (size before relaxing)
 .debug_str     0x000032e4       0x7d ..\obj\ip_addr.o
                                0x28d (size before relaxing)
 .debug_str     0x00003361       0xb1 ..\obj\inet_chksum.o
                                0x257 (size before relaxing)
 .debug_str     0x00003412       0x7a ..\obj\main.o
                                0x228 (size before relaxing)
 .debug_str     0x0000348c      0x5eb ..\obj\stm32f4xx_rcc.o
                                0x858 (size before relaxing)
 .debug_str     0x00003a77      0x281 ..\obj\netconf.o
                                0x53e (size before relaxing)
 .debug_str     0x00003cf8       0xf1 ..\obj\stm32f4xx_it.o
                                0x219 (size before relaxing)
 .debug_str     0x00003de9      0x63c ..\obj\stm32f4xx_adc.o
                                0x80c (size before relaxing)
 .debug_str     0x00004425      0x191 ..\obj\stm32f4x7_eth_bsp.o
                                0xe2d (size before relaxing)
 .debug_str     0x000045b6       0xa6 ..\obj\ethernetif.o
                                0x6c5 (size before relaxing)
 .debug_str     0x0000465c      0x274 ..\obj\etharp.o
                                0x7fe (size before relaxing)
 .debug_str     0x000048d0      0x3b4 ..\obj\httpd.o
                                0x86e (size before relaxing)
 .debug_str     0x00004c84      0x165 ..\obj\httpd_cgi_ssi.o
                                0x661 (size before relaxing)
 .debug_str     0x00004de9      0x184 ..\obj\pbuf.o
                                0x429 (size before relaxing)
 .debug_str     0x00004f6d       0x93 ..\obj\inet.o
                                0x200 (size before relaxing)
 .debug_str     0x00005000      0x150 ..\obj\netif.o
                                0x7ad (size before relaxing)
 .debug_str     0x00005150      0x1a5 ..\obj\stm32f4xx_gpio.o
                                0x4ab (size before relaxing)
 .debug_str     0x000052f5       0xcc ..\obj\system_stm32f4xx.o
                                0x3b2 (size before relaxing)
 .debug_str     0x000053c1      0x14d ..\obj\syscalls.o
                                0x2e2 (size before relaxing)
 .debug_str     0x0000550e      0x15a ..\obj\udp.o
                                0x660 (size before relaxing)
 .debug_str     0x00005668       0xbb ..\obj\ip.o
                                0x541 (size before relaxing)
 .debug_str     0x00005723       0xc8 ..\obj\icmp.o
                                0x3fa (size before relaxing)
 .debug_str     0x000057eb      0x114 ..\obj\misc.o
                                0x3d6 (size before relaxing)
 .debug_str     0x000058ff      0x306 ..\obj\dhcp.o
                                0x795 (size before relaxing)
 .debug_str     0x00005c05      0x143 ..\obj\tcp_out.o
                                0x6b2 (size before relaxing)
 .debug_str     0x00005d48       0xb3 ..\obj\raw.o
                                0x41a (size before relaxing)

.comment        0x00000000       0x70
 .comment       0x00000000       0x70 ..\obj\stm32f4xx_syscfg.o
                                 0x71 (size before relaxing)
 .comment       0x00000000       0x71 ..\obj\mem.o
 .comment       0x00000000       0x71 ..\obj\tcp.o
 .comment       0x00000000       0x71 ..\obj\tcp_in.o
 .comment       0x00000000       0x71 ..\obj\memp.o
 .comment       0x00000000       0x71 ..\obj\autoip.o
 .comment       0x00000000       0x71 ..\obj\ip_frag.o
 .comment       0x00000000       0x71 ..\obj\fs.o
 .comment       0x00000000       0x71 ..\obj\startup_stm32f4xx.o
 .comment       0x00000000       0x71 ..\obj\stm32f4_discovery.o
 .comment       0x00000000       0x71 ..\obj\stm32f4x7_eth.o
 .comment       0x00000000       0x71 ..\obj\ip_addr.o
 .comment       0x00000000       0x71 ..\obj\inet_chksum.o
 .comment       0x00000000       0x71 ..\obj\main.o
 .comment       0x00000000       0x71 ..\obj\stm32f4xx_rcc.o
 .comment       0x00000000       0x71 ..\obj\netconf.o
 .comment       0x00000000       0x71 ..\obj\stm32f4xx_it.o
 .comment       0x00000000       0x71 ..\obj\stm32f4xx_adc.o
 .comment       0x00000000       0x71 ..\obj\stm32f4x7_eth_bsp.o
 .comment       0x00000000       0x71 ..\obj\ethernetif.o
 .comment       0x00000000       0x71 ..\obj\etharp.o
 .comment       0x00000000       0x71 ..\obj\httpd.o
 .comment       0x00000000       0x71 ..\obj\httpd_cgi_ssi.o
 .comment       0x00000000       0x71 ..\obj\pbuf.o
 .comment       0x00000000       0x71 ..\obj\inet.o
 .comment       0x00000000       0x71 ..\obj\netif.o
 .comment       0x00000000       0x71 ..\obj\stm32f4xx_gpio.o
 .comment       0x00000000       0x71 ..\obj\system_stm32f4xx.o
 .comment       0x00000000       0x71 ..\obj\syscalls.o
 .comment       0x00000000       0x71 ..\obj\udp.o
 .comment       0x00000000       0x71 ..\obj\ip.o
 .comment       0x00000000       0x71 ..\obj\icmp.o
 .comment       0x00000000       0x71 ..\obj\misc.o
 .comment       0x00000000       0x71 ..\obj\dhcp.o
 .comment       0x00000000       0x71 ..\obj\tcp_out.o
 .comment       0x00000000       0x71 ..\obj\raw.o

.ARM.attributes
                0x00000000       0x31
 .ARM.attributes
                0x00000000       0x33 ..\obj\stm32f4xx_syscfg.o
 .ARM.attributes
                0x00000033       0x33 ..\obj\mem.o
 .ARM.attributes
                0x00000066       0x33 ..\obj\tcp.o
 .ARM.attributes
                0x00000099       0x33 ..\obj\tcp_in.o
 .ARM.attributes
                0x000000cc       0x33 ..\obj\memp.o
 .ARM.attributes
                0x000000ff       0x33 ..\obj\autoip.o
 .ARM.attributes
                0x00000132       0x33 ..\obj\ip_frag.o
 .ARM.attributes
                0x00000165       0x33 ..\obj\fs.o
 .ARM.attributes
                0x00000198       0x33 ..\obj\startup_stm32f4xx.o
 .ARM.attributes
                0x000001cb       0x33 ..\obj\stm32f4_discovery.o
 .ARM.attributes
                0x000001fe       0x33 ..\obj\stm32f4x7_eth.o
 .ARM.attributes
                0x00000231       0x33 ..\obj\ip_addr.o
 .ARM.attributes
                0x00000264       0x33 ..\obj\inet_chksum.o
 .ARM.attributes
                0x00000297       0x33 ..\obj\main.o
 .ARM.attributes
                0x000002ca       0x33 ..\obj\stm32f4xx_rcc.o
 .ARM.attributes
                0x000002fd       0x33 ..\obj\netconf.o
 .ARM.attributes
                0x00000330       0x33 ..\obj\stm32f4xx_it.o
 .ARM.attributes
                0x00000363       0x33 ..\obj\stm32f4xx_adc.o
 .ARM.attributes
                0x00000396       0x33 ..\obj\stm32f4x7_eth_bsp.o
 .ARM.attributes
                0x000003c9       0x33 ..\obj\ethernetif.o
 .ARM.attributes
                0x000003fc       0x33 ..\obj\etharp.o
 .ARM.attributes
                0x0000042f       0x33 ..\obj\httpd.o
 .ARM.attributes
                0x00000462       0x33 ..\obj\httpd_cgi_ssi.o
 .ARM.attributes
                0x00000495       0x33 ..\obj\pbuf.o
 .ARM.attributes
                0x000004c8       0x33 ..\obj\inet.o
 .ARM.attributes
                0x000004fb       0x33 ..\obj\netif.o
 .ARM.attributes
                0x0000052e       0x33 ..\obj\stm32f4xx_gpio.o
 .ARM.attributes
                0x00000561       0x33 ..\obj\system_stm32f4xx.o
 .ARM.attributes
                0x00000594       0x33 ..\obj\syscalls.o
 .ARM.attributes
                0x000005c7       0x33 ..\obj\udp.o
 .ARM.attributes
                0x000005fa       0x33 ..\obj\ip.o
 .ARM.attributes
                0x0000062d       0x33 ..\obj\icmp.o
 .ARM.attributes
                0x00000660       0x33 ..\obj\misc.o
 .ARM.attributes
                0x00000693       0x33 ..\obj\dhcp.o
 .ARM.attributes
                0x000006c6       0x33 ..\obj\tcp_out.o
 .ARM.attributes
                0x000006f9       0x33 ..\obj\raw.o
 .ARM.attributes
                0x0000072c       0x1e c:/program files (x86)/gnu tools arm embedded/4.8 2014q1/bin/../lib/gcc/arm-none-eabi/4.8.3/armv7e-m\libgcc.a(_arm_addsubdf3.o)
 .ARM.attributes
                0x0000074a       0x1e c:/program files (x86)/gnu tools arm embedded/4.8 2014q1/bin/../lib/gcc/arm-none-eabi/4.8.3/armv7e-m\libgcc.a(_arm_muldivdf3.o)
 .ARM.attributes
                0x00000768       0x1e c:/program files (x86)/gnu tools arm embedded/4.8 2014q1/bin/../lib/gcc/arm-none-eabi/4.8.3/armv7e-m\libgcc.a(_arm_fixunsdfsi.o)
 .ARM.attributes
                0x00000786       0x2e c:/program files (x86)/gnu tools arm embedded/4.8 2014q1/bin/../lib/gcc/arm-none-eabi/4.8.3/../../../../arm-none-eabi/lib/armv7e-m\libg.a(lib_a-memcmp.o)
 .ARM.attributes
                0x000007b4       0x1c c:/program files (x86)/gnu tools arm embedded/4.8 2014q1/bin/../lib/gcc/arm-none-eabi/4.8.3/../../../../arm-none-eabi/lib/armv7e-m\libg.a(lib_a-memcpy.o)
 .ARM.attributes
                0x000007d0       0x2e c:/program files (x86)/gnu tools arm embedded/4.8 2014q1/bin/../lib/gcc/arm-none-eabi/4.8.3/../../../../arm-none-eabi/lib/armv7e-m\libg.a(lib_a-memset.o)
 .ARM.attributes
                0x000007fe       0x2e c:/program files (x86)/gnu tools arm embedded/4.8 2014q1/bin/../lib/gcc/arm-none-eabi/4.8.3/../../../../arm-none-eabi/lib/armv7e-m\libg.a(lib_a-sprintf.o)
 .ARM.attributes
                0x0000082c       0x2e c:/program files (x86)/gnu tools arm embedded/4.8 2014q1/bin/../lib/gcc/arm-none-eabi/4.8.3/../../../../arm-none-eabi/lib/armv7e-m\libg.a(lib_a-strchr.o)
 .ARM.attributes
                0x0000085a       0x1c c:/program files (x86)/gnu tools arm embedded/4.8 2014q1/bin/../lib/gcc/arm-none-eabi/4.8.3/../../../../arm-none-eabi/lib/armv7e-m\libg.a(lib_a-strcmp.o)
 .ARM.attributes
                0x00000876       0x2e c:/program files (x86)/gnu tools arm embedded/4.8 2014q1/bin/../lib/gcc/arm-none-eabi/4.8.3/../../../../arm-none-eabi/lib/armv7e-m\libg.a(lib_a-strlen.o)
 .ARM.attributes
                0x000008a4       0x2e c:/program files (x86)/gnu tools arm embedded/4.8 2014q1/bin/../lib/gcc/arm-none-eabi/4.8.3/../../../../arm-none-eabi/lib/armv7e-m\libg.a(lib_a-strncmp.o)
 .ARM.attributes
                0x000008d2       0x2e c:/program files (x86)/gnu tools arm embedded/4.8 2014q1/bin/../lib/gcc/arm-none-eabi/4.8.3/../../../../arm-none-eabi/lib/armv7e-m\libg.a(lib_a-strstr.o)
 .ARM.attributes
                0x00000900       0x2e c:/program files (x86)/gnu tools arm embedded/4.8 2014q1/bin/../lib/gcc/arm-none-eabi/4.8.3/../../../../arm-none-eabi/lib/armv7e-m\libg.a(lib_a-svfprintf.o)
 .ARM.attributes
                0x0000092e       0x2e c:/program files (x86)/gnu tools arm embedded/4.8 2014q1/bin/../lib/gcc/arm-none-eabi/4.8.3/../../../../arm-none-eabi/lib/armv7e-m\libg.a(lib_a-dtoa.o)
 .ARM.attributes
                0x0000095c       0x2e c:/program files (x86)/gnu tools arm embedded/4.8 2014q1/bin/../lib/gcc/arm-none-eabi/4.8.3/../../../../arm-none-eabi/lib/armv7e-m\libg.a(lib_a-impure.o)
 .ARM.attributes
                0x0000098a       0x2e c:/program files (x86)/gnu tools arm embedded/4.8 2014q1/bin/../lib/gcc/arm-none-eabi/4.8.3/../../../../arm-none-eabi/lib/armv7e-m\libg.a(lib_a-locale.o)
 .ARM.attributes
                0x000009b8       0x2e c:/program files (x86)/gnu tools arm embedded/4.8 2014q1/bin/../lib/gcc/arm-none-eabi/4.8.3/../../../../arm-none-eabi/lib/armv7e-m\libg.a(lib_a-mallocr.o)
 .ARM.attributes
                0x000009e6       0x2e c:/program files (x86)/gnu tools arm embedded/4.8 2014q1/bin/../lib/gcc/arm-none-eabi/4.8.3/../../../../arm-none-eabi/lib/armv7e-m\libg.a(lib_a-memchr-stub.o)
 .ARM.attributes
                0x00000a14       0x2e c:/program files (x86)/gnu tools arm embedded/4.8 2014q1/bin/../lib/gcc/arm-none-eabi/4.8.3/../../../../arm-none-eabi/lib/armv7e-m\libg.a(lib_a-mlock.o)
 .ARM.attributes
                0x00000a42       0x2e c:/program files (x86)/gnu tools arm embedded/4.8 2014q1/bin/../lib/gcc/arm-none-eabi/4.8.3/../../../../arm-none-eabi/lib/armv7e-m\libg.a(lib_a-mprec.o)
 .ARM.attributes
                0x00000a70       0x2e c:/program files (x86)/gnu tools arm embedded/4.8 2014q1/bin/../lib/gcc/arm-none-eabi/4.8.3/../../../../arm-none-eabi/lib/armv7e-m\libg.a(lib_a-s_fpclassify.o)
 .ARM.attributes
                0x00000a9e       0x2e c:/program files (x86)/gnu tools arm embedded/4.8 2014q1/bin/../lib/gcc/arm-none-eabi/4.8.3/../../../../arm-none-eabi/lib/armv7e-m\libg.a(lib_a-sbrkr.o)
 .ARM.attributes
                0x00000acc       0x2e c:/program files (x86)/gnu tools arm embedded/4.8 2014q1/bin/../lib/gcc/arm-none-eabi/4.8.3/../../../../arm-none-eabi/lib/armv7e-m\libg.a(lib_a-svfiprintf.o)
 .ARM.attributes
                0x00000afa       0x2e c:/program files (x86)/gnu tools arm embedded/4.8 2014q1/bin/../lib/gcc/arm-none-eabi/4.8.3/../../../../arm-none-eabi/lib/armv7e-m\libg.a(lib_a-callocr.o)
 .ARM.attributes
                0x00000b28       0x2e c:/program files (x86)/gnu tools arm embedded/4.8 2014q1/bin/../lib/gcc/arm-none-eabi/4.8.3/../../../../arm-none-eabi/lib/armv7e-m\libg.a(lib_a-freer.o)
 .ARM.attributes
                0x00000b56       0x2e c:/program files (x86)/gnu tools arm embedded/4.8 2014q1/bin/../lib/gcc/arm-none-eabi/4.8.3/../../../../arm-none-eabi/lib/armv7e-m\libg.a(lib_a-memmove.o)
 .ARM.attributes
                0x00000b84       0x2e c:/program files (x86)/gnu tools arm embedded/4.8 2014q1/bin/../lib/gcc/arm-none-eabi/4.8.3/../../../../arm-none-eabi/lib/armv7e-m\libg.a(lib_a-reallocr.o)
 .ARM.attributes
                0x00000bb2       0x2e c:/program files (x86)/gnu tools arm embedded/4.8 2014q1/bin/../lib/gcc/arm-none-eabi/4.8.3/../../../../arm-none-eabi/lib/armv7e-m\libg.a(lib_a-reent.o)
 .ARM.attributes
                0x00000be0       0x1e c:/program files (x86)/gnu tools arm embedded/4.8 2014q1/bin/../lib/gcc/arm-none-eabi/4.8.3/armv7e-m\libgcc.a(_arm_cmpdf2.o)
 .ARM.attributes
                0x00000bfe       0x1e c:/program files (x86)/gnu tools arm embedded/4.8 2014q1/bin/../lib/gcc/arm-none-eabi/4.8.3/armv7e-m\libgcc.a(_arm_fixdfsi.o)
 .ARM.attributes
                0x00000c1c       0x1e c:/program files (x86)/gnu tools arm embedded/4.8 2014q1/bin/../lib/gcc/arm-none-eabi/4.8.3/armv7e-m\libgcc.a(_aeabi_uldivmod.o)
 .ARM.attributes
                0x00000c3a       0x2e c:/program files (x86)/gnu tools arm embedded/4.8 2014q1/bin/../lib/gcc/arm-none-eabi/4.8.3/armv7e-m\libgcc.a(bpabi.o)
 .ARM.attributes
                0x00000c68       0x1e c:/program files (x86)/gnu tools arm embedded/4.8 2014q1/bin/../lib/gcc/arm-none-eabi/4.8.3/armv7e-m\libgcc.a(_dvmd_tls.o)
 .ARM.attributes
                0x00000c86       0x2e c:/program files (x86)/gnu tools arm embedded/4.8 2014q1/bin/../lib/gcc/arm-none-eabi/4.8.3/armv7e-m\libgcc.a(_divdi3.o)
 .ARM.attributes
                0x00000cb4       0x2e c:/program files (x86)/gnu tools arm embedded/4.8 2014q1/bin/../lib/gcc/arm-none-eabi/4.8.3/armv7e-m\libgcc.a(_udivdi3.o)

.debug_frame    0x00000000     0x4060
 .debug_frame   0x00000000       0xbc ..\obj\stm32f4xx_syscfg.o
 .debug_frame   0x000000bc       0xc0 ..\obj\mem.o
 .debug_frame   0x0000017c      0x3b8 ..\obj\tcp.o
 .debug_frame   0x00000534       0xe4 ..\obj\tcp_in.o
 .debug_frame   0x00000618       0x64 ..\obj\memp.o
 .debug_frame   0x0000067c      0x184 ..\obj\autoip.o
 .debug_frame   0x00000800      0x110 ..\obj\ip_frag.o
 .debug_frame   0x00000910       0xc4 ..\obj\fs.o
 .debug_frame   0x000009d4       0x48 ..\obj\startup_stm32f4xx.o
 .debug_frame   0x00000a1c      0x164 ..\obj\stm32f4_discovery.o
 .debug_frame   0x00000b80      0x904 ..\obj\stm32f4x7_eth.o
 .debug_frame   0x00001484       0x2c ..\obj\ip_addr.o
 .debug_frame   0x000014b0       0x90 ..\obj\inet_chksum.o
 .debug_frame   0x00001540       0x7c ..\obj\main.o
 .debug_frame   0x000015bc      0x4d8 ..\obj\stm32f4xx_rcc.o
 .debug_frame   0x00001a94       0x8c ..\obj\netconf.o
 .debug_frame   0x00001b20       0xec ..\obj\stm32f4xx_it.o
 .debug_frame   0x00001c0c      0x434 ..\obj\stm32f4xx_adc.o
 .debug_frame   0x00002040       0xac ..\obj\stm32f4x7_eth_bsp.o
 .debug_frame   0x000020ec       0xb0 ..\obj\ethernetif.o
 .debug_frame   0x0000219c      0x1b0 ..\obj\etharp.o
 .debug_frame   0x0000234c      0x2a4 ..\obj\httpd.o
 .debug_frame   0x000025f0       0xa8 ..\obj\httpd_cgi_ssi.o
 .debug_frame   0x00002698      0x1a0 ..\obj\pbuf.o
 .debug_frame   0x00002838       0xe4 ..\obj\inet.o
 .debug_frame   0x0000291c      0x1d4 ..\obj\netif.o
 .debug_frame   0x00002af0      0x19c ..\obj\stm32f4xx_gpio.o
 .debug_frame   0x00002c8c       0x64 ..\obj\system_stm32f4xx.o
 .debug_frame   0x00002cf0      0x108 ..\obj\syscalls.o
 .debug_frame   0x00002df8      0x144 ..\obj\udp.o
 .debug_frame   0x00002f3c       0x90 ..\obj\ip.o
 .debug_frame   0x00002fcc       0x90 ..\obj\icmp.o
 .debug_frame   0x0000305c       0x9c ..\obj\misc.o
 .debug_frame   0x000030f8      0x46c ..\obj\dhcp.o
 .debug_frame   0x00003564      0x1b8 ..\obj\tcp_out.o
 .debug_frame   0x0000371c      0x104 ..\obj\raw.o
 .debug_frame   0x00003820       0x2c c:/program files (x86)/gnu tools arm embedded/4.8 2014q1/bin/../lib/gcc/arm-none-eabi/4.8.3/../../../../arm-none-eabi/lib/armv7e-m\libg.a(lib_a-memcmp.o)
 .debug_frame   0x0000384c       0x2c c:/program files (x86)/gnu tools arm embedded/4.8 2014q1/bin/../lib/gcc/arm-none-eabi/4.8.3/../../../../arm-none-eabi/lib/armv7e-m\libg.a(lib_a-memset.o)
 .debug_frame   0x00003878       0x64 c:/program files (x86)/gnu tools arm embedded/4.8 2014q1/bin/../lib/gcc/arm-none-eabi/4.8.3/../../../../arm-none-eabi/lib/armv7e-m\libg.a(lib_a-sprintf.o)
 .debug_frame   0x000038dc       0x2c c:/program files (x86)/gnu tools arm embedded/4.8 2014q1/bin/../lib/gcc/arm-none-eabi/4.8.3/../../../../arm-none-eabi/lib/armv7e-m\libg.a(lib_a-strchr.o)
 .debug_frame   0x00003908       0x20 c:/program files (x86)/gnu tools arm embedded/4.8 2014q1/bin/../lib/gcc/arm-none-eabi/4.8.3/../../../../arm-none-eabi/lib/armv7e-m\libg.a(lib_a-strlen.o)
 .debug_frame   0x00003928       0x28 c:/program files (x86)/gnu tools arm embedded/4.8 2014q1/bin/../lib/gcc/arm-none-eabi/4.8.3/../../../../arm-none-eabi/lib/armv7e-m\libg.a(lib_a-strncmp.o)
 .debug_frame   0x00003950       0x84 c:/program files (x86)/gnu tools arm embedded/4.8 2014q1/bin/../lib/gcc/arm-none-eabi/4.8.3/../../../../arm-none-eabi/lib/armv7e-m\libg.a(lib_a-strstr.o)
 .debug_frame   0x000039d4       0x3c c:/program files (x86)/gnu tools arm embedded/4.8 2014q1/bin/../lib/gcc/arm-none-eabi/4.8.3/../../../../arm-none-eabi/lib/armv7e-m\libg.a(lib_a-svfprintf.o)
 .debug_frame   0x00003a10       0x64 c:/program files (x86)/gnu tools arm embedded/4.8 2014q1/bin/../lib/gcc/arm-none-eabi/4.8.3/../../../../arm-none-eabi/lib/armv7e-m\libg.a(lib_a-dtoa.o)
 .debug_frame   0x00003a74       0x98 c:/program files (x86)/gnu tools arm embedded/4.8 2014q1/bin/../lib/gcc/arm-none-eabi/4.8.3/../../../../arm-none-eabi/lib/armv7e-m\libg.a(lib_a-locale.o)
 .debug_frame   0x00003b0c       0x38 c:/program files (x86)/gnu tools arm embedded/4.8 2014q1/bin/../lib/gcc/arm-none-eabi/4.8.3/../../../../arm-none-eabi/lib/armv7e-m\libg.a(lib_a-mallocr.o)
 .debug_frame   0x00003b44       0x2c c:/program files (x86)/gnu tools arm embedded/4.8 2014q1/bin/../lib/gcc/arm-none-eabi/4.8.3/../../../../arm-none-eabi/lib/armv7e-m\libg.a(lib_a-memchr-stub.o)
 .debug_frame   0x00003b70       0x30 c:/program files (x86)/gnu tools arm embedded/4.8 2014q1/bin/../lib/gcc/arm-none-eabi/4.8.3/../../../../arm-none-eabi/lib/armv7e-m\libg.a(lib_a-mlock.o)
 .debug_frame   0x00003ba0      0x22c c:/program files (x86)/gnu tools arm embedded/4.8 2014q1/bin/../lib/gcc/arm-none-eabi/4.8.3/../../../../arm-none-eabi/lib/armv7e-m\libg.a(lib_a-mprec.o)
 .debug_frame   0x00003dcc       0x28 c:/program files (x86)/gnu tools arm embedded/4.8 2014q1/bin/../lib/gcc/arm-none-eabi/4.8.3/../../../../arm-none-eabi/lib/armv7e-m\libg.a(lib_a-s_fpclassify.o)
 .debug_frame   0x00003df4       0x2c c:/program files (x86)/gnu tools arm embedded/4.8 2014q1/bin/../lib/gcc/arm-none-eabi/4.8.3/../../../../arm-none-eabi/lib/armv7e-m\libg.a(lib_a-sbrkr.o)
 .debug_frame   0x00003e20       0x64 c:/program files (x86)/gnu tools arm embedded/4.8 2014q1/bin/../lib/gcc/arm-none-eabi/4.8.3/../../../../arm-none-eabi/lib/armv7e-m\libg.a(lib_a-svfiprintf.o)
 .debug_frame   0x00003e84       0x28 c:/program files (x86)/gnu tools arm embedded/4.8 2014q1/bin/../lib/gcc/arm-none-eabi/4.8.3/../../../../arm-none-eabi/lib/armv7e-m\libg.a(lib_a-callocr.o)
 .debug_frame   0x00003eac       0x50 c:/program files (x86)/gnu tools arm embedded/4.8 2014q1/bin/../lib/gcc/arm-none-eabi/4.8.3/../../../../arm-none-eabi/lib/armv7e-m\libg.a(lib_a-freer.o)
 .debug_frame   0x00003efc       0x2c c:/program files (x86)/gnu tools arm embedded/4.8 2014q1/bin/../lib/gcc/arm-none-eabi/4.8.3/../../../../arm-none-eabi/lib/armv7e-m\libg.a(lib_a-memmove.o)
 .debug_frame   0x00003f28       0x38 c:/program files (x86)/gnu tools arm embedded/4.8 2014q1/bin/../lib/gcc/arm-none-eabi/4.8.3/../../../../arm-none-eabi/lib/armv7e-m\libg.a(lib_a-reallocr.o)
 .debug_frame   0x00003f60       0x48 c:/program files (x86)/gnu tools arm embedded/4.8 2014q1/bin/../lib/gcc/arm-none-eabi/4.8.3/../../../../arm-none-eabi/lib/armv7e-m\libg.a(lib_a-reent.o)
 .debug_frame   0x00003fa8       0x50 c:/program files (x86)/gnu tools arm embedded/4.8 2014q1/bin/../lib/gcc/arm-none-eabi/4.8.3/armv7e-m\libgcc.a(bpabi.o)
 .debug_frame   0x00003ff8       0x34 c:/program files (x86)/gnu tools arm embedded/4.8 2014q1/bin/../lib/gcc/arm-none-eabi/4.8.3/armv7e-m\libgcc.a(_divdi3.o)
 .debug_frame   0x0000402c       0x34 c:/program files (x86)/gnu tools arm embedded/4.8 2014q1/bin/../lib/gcc/arm-none-eabi/4.8.3/armv7e-m\libgcc.a(_udivdi3.o)
