Component: ARM Compiler 5.06 update 6 (build 750) Tool: armlink [4d35ed]

==============================================================================

Section Cross References

    main.o(.text) refers to tasks.o(.text) for vTaskDelay
    main.o(.text) refers to printf8.o(i.__0printf$8) for __2printf
    main.o(.text) refers to strcpy.o(.text) for strcpy
    main.o(.text) refers to api_server.o(.text) for Flash_Write_Information
    main.o(.text) refers to stm32f4_discovery.o(.text) for STM_EVAL_LEDOn
    main.o(.text) refers to stm32f4x7_eth_bsp.o(.text) for ETH_Disable
    main.o(.text) refers to queue.o(.text) for xQueueReceive
    main.o(.text) refers to mqttclienttask.o(.text) for vStartMQTTTasks
    main.o(.text) refers to main.o(.bss) for .bss
    main.o(.text) refers to main.o(.data) for .data
    main.o(.text) refers to main.o(.conststring) for .conststring
    main.o(.text) refers to stm32f4xx_rtc.o(.text) for RTC_WriteProtectionCmd
    main.o(.text) refers to stm32f4xx_rcc.o(.text) for RCC_APB1PeriphClockCmd
    main.o(.text) refers to stm32f4xx_pwr.o(.text) for PWR_BackupAccessCmd
    main.o(.text) refers to stm32f4xx_gpio.o(.text) for GPIO_Init
    main.o(.text) refers to stm32f4xx_uartstdio.o(.text) for UARTstdio_Configuration
    main.o(.text) refers to netconf.o(.text) for LwIP_Init
    main.o(.text) refers to keyscan_task.o(.text) for vStartKeyScanTasks
    main.o(.text) refers to httpserver-socket.o(.text) for http_server_socket_init
    main.o(.text) refers to tcpmbbus_task.o(.text) for vStartTCPMBTasks
    main.o(.text) refers to rs485bus_task_m.o(.text) for vStartRS485busMasterTasks
    main.o(.text) refers to heap_2.o(.text) for xPortGetFreeHeapSize
    system_stm32f4xx.o(.text) refers to system_stm32f4xx.o(.data) for .data
    stm32f4xx_it.o(.text) refers to port.o(.text) for xPortSysTickHandler
    stm32f4xx_it.o(.text) refers to stm32f4x7_eth.o(.text) for ETH_GetDMAFlagStatus
    stm32f4xx_it.o(.text) refers to queue.o(.text) for xQueueGiveFromISR
    stm32f4xx_it.o(.text) refers to stm32f4xx_tim.o(.text) for TIM_ClearITPendingBit
    stm32f4xx_it.o(.text) refers to ethernetif.o(.data) for s_xSemaphore
    netconf.o(.text) refers to tcpip.o(.text) for tcpip_init
    netconf.o(.text) refers to inet.o(.text) for htonl
    netconf.o(.text) refers to netif.o(.text) for netif_add
    netconf.o(.text) refers to tasks.o(.text) for xTaskGetHandle
    netconf.o(.text) refers to queue.o(.text) for xQueuePeek
    netconf.o(.text) refers to dhcp.o(.text) for dhcp_start
    netconf.o(.text) refers to netconf.o(.data) for .data
    netconf.o(.text) refers to ethernetif.o(.text) for ethernetif_init
    netconf.o(.text) refers to netconf.o(.bss) for .bss
    netconf.o(.text) refers to main.o(.data) for xQueueState
    stm32f4x7_eth_bsp.o(.text) refers to stm32f4x7_eth.o(.text) for ETH_StructInit
    stm32f4x7_eth_bsp.o(.text) refers to stm32f4xx_rcc.o(.text) for RCC_AHB1PeriphClockCmd
    stm32f4x7_eth_bsp.o(.text) refers to stm32f4xx_syscfg.o(.text) for SYSCFG_ETH_MediaInterfaceConfig
    stm32f4x7_eth_bsp.o(.text) refers to stm32f4xx_gpio.o(.text) for GPIO_Init
    stm32f4x7_eth_bsp.o(.text) refers to misc.o(.text) for NVIC_PriorityGroupConfig
    stm32f4x7_eth_bsp.o(.text) refers to queue.o(.text) for xQueuePeek
    stm32f4x7_eth_bsp.o(.text) refers to tasks.o(.text) for xTaskGetHandle
    stm32f4x7_eth_bsp.o(.text) refers to stm32f4x7_eth_bsp.o(.data) for .data
    stm32f4x7_eth_bsp.o(.text) refers to main.o(.data) for xQueueState
    stm32f4x7_eth_bsp.o(.text) refers to main.o(.bss) for ip_lan
    stm32f4x7_eth_bsp.o(.text) refers to netconf.o(.text) for LwIP_DHCP_task
    fs.o(.text) refers to strcmp.o(.text) for strcmp
    fs.o(.text) refers to memcpya.o(.text) for __aeabi_memcpy
    fs.o(.text) refers to fs.o(.bss) for .bss
    fs.o(.text) refers to fs.o(.constdata) for .constdata
    fs.o(.constdata) refers to fs.o(.constdata) for data__script_common_js
    fs.o(.constdata) refers to fs.o(.constdata) for file__common_js
    fs.o(.constdata) refers to fs.o(.constdata) for data__style_css
    fs.o(.constdata) refers to fs.o(.constdata) for file__style_css
    fs.o(.constdata) refers to fs.o(.constdata) for data__404_html
    fs.o(.constdata) refers to fs.o(.constdata) for file__404_html
    fs.o(.constdata) refers to fs.o(.constdata) for data__reboot_html
    fs.o(.constdata) refers to fs.o(.constdata) for file__reboot_html
    fs.o(.constdata) refers to fs.o(.constdata) for data__maintain_html
    fs.o(.constdata) refers to fs.o(.constdata) for file__maintain_html
    fs.o(.constdata) refers to fs.o(.constdata) for data__hostconfig_html
    fs.o(.constdata) refers to fs.o(.constdata) for file__hostconfig_html
    fs.o(.constdata) refers to fs.o(.constdata) for data__lanconfig_html
    fs.o(.constdata) refers to fs.o(.constdata) for file__lanconfig_html
    fs.o(.constdata) refers to fs.o(.constdata) for data__portconfig_html
    fs.o(.constdata) refers to fs.o(.constdata) for file__portconfig_html
    fs.o(.constdata) refers to fs.o(.constdata) for data__index_html
    fs.o(.constdata) refers to fs.o(.constdata) for file__index_html
    fs.o(.constdata) refers to fs.o(.constdata) for data__login_html
    httpserver-socket.o(.text) refers to sockets.o(.text) for lwip_read
    httpserver-socket.o(.text) refers to memseta.o(.text) for __aeabi_memclr4
    httpserver-socket.o(.text) refers to api_server.o(.text) for User_read_flash
    httpserver-socket.o(.text) refers to strstr.o(.text) for strstr
    httpserver-socket.o(.text) refers to strcat.o(.text) for strcat
    httpserver-socket.o(.text) refers to strncmp.o(.text) for strncmp
    httpserver-socket.o(.text) refers to stm32f4xx_rtc.o(.text) for RTC_GetTime
    httpserver-socket.o(.text) refers to miscellaneous.o(.text) for itoa
    httpserver-socket.o(.text) refers to httpserver-socket.o(.data) for .data
    httpserver-socket.o(.text) refers to main.o(.bss) for user
    httpserver-socket.o(.text) refers to strlen.o(.text) for strlen
    httpserver-socket.o(.text) refers to tasks.o(.text) for vTaskDelay
    httpserver-socket.o(.text) refers to inet.o(.text) for inet_ntoa
    httpserver-socket.o(.text) refers to httpserver-socket.o(.constdata) for .constdata
    httpserver-socket.o(.text) refers to strcmp.o(.text) for strcmp
    httpserver-socket.o(.text) refers to fs.o(.text) for fs_open
    httpserver-socket.o(.text) refers to queue.o(.text) for xQueuePeek
    httpserver-socket.o(.text) refers to printf8.o(i.__0printf$8) for __2printf
    httpserver-socket.o(.text) refers to sys_arch.o(.text) for sys_thread_new
    httpserver-socket.o(.text) refers to main.o(.data) for xQueueState
    miscellaneous.o(.text) refers to miscellaneous.o(.bss) for .bss
    hw_config.o(.text) refers to stm32f4xx_exti.o(.text) for EXTI_Init
    hw_config.o(.text) refers to stm32f4xx_rcc.o(.text) for RCC_APB2PeriphClockCmd
    hw_config.o(.text) refers to stm32f4xx_gpio.o(.text) for GPIO_Init
    hw_config.o(.text) refers to stm32f4xx_syscfg.o(.text) for SYSCFG_EXTILineConfig
    hw_config.o(.text) refers to stm32f4xx_tim.o(.text) for TIM_TimeBaseInit
    hw_config.o(.text) refers to misc.o(.text) for NVIC_Init
    api_server.o(.text) refers to stm32f4xx_flash.o(.text) for FLASH_Unlock
    api_server.o(.text) refers to strstr.o(.text) for strstr
    api_server.o(.text) refers to atoi.o(.text) for atoi
    api_server.o(.text) refers to memseta.o(.text) for __aeabi_memclr4
    api_server.o(.text) refers to strncat.o(.text) for strncat
    api_server.o(.text) refers to inet.o(.text) for inet_addr
    api_server.o(.text) refers to main.o(.bss) for ip_lan
    api_server.o(.text) refers to api_server.o(.data) for .data
    api_server.o(.text) refers to strpbrk.o(.text) for strpbrk
    api_server.o(.text) refers to strlen.o(.text) for strlen
    api_server.o(.text) refers to printf8.o(i.__0sprintf$8) for __2sprintf
    api_server.o(.text) refers to strcat.o(.text) for strcat
    api_server.o(.text) refers to stm32f4xx_rtc.o(.text) for RTC_GetTime
    api_server.o(.text) refers to tasks.o(.text) for vTaskDelay
    api_server.o(.text) refers to stm32f4xx_gpio.o(.text) for GPIO_SetBits
    api_server.o(.text) refers to main.o(.data) for ucFlashUpdate
    mqttclienttask.o(.text) refers to printf8.o(i.__0printf$8) for __2printf
    mqttclienttask.o(.text) refers to memseta.o(.text) for __aeabi_memclr4
    mqttclienttask.o(.text) refers to strcat.o(.text) for strcat
    mqttclienttask.o(.text) refers to miscellaneous.o(.text) for itoa
    mqttclienttask.o(.text) refers to strstr.o(.text) for strstr
    mqttclienttask.o(.text) refers to memcpya.o(.text) for __aeabi_memcpy4
    mqttclienttask.o(.text) refers to tasks.o(.text) for xTaskGetHandle
    mqttclienttask.o(.text) refers to queue.o(.text) for xQueuePeek
    mqttclienttask.o(.text) refers to key_scan.o(.text) for ADC_Configuration
    mqttclienttask.o(.text) refers to mqttfreertos.o(.text) for NetworkInit
    mqttclienttask.o(.text) refers to mqttclient.o(.text) for MQTTClientInit
    mqttclienttask.o(.text) refers to api_server.o(.text) for Host_read_flash
    mqttclienttask.o(.text) refers to strlen.o(.text) for strlen
    mqttclienttask.o(.text) refers to strncat.o(.text) for strncat
    mqttclienttask.o(.text) refers to sockets.o(.text) for lwip_close
    mqttclienttask.o(.text) refers to mqttclienttask.o(.bss) for .bss
    mqttclienttask.o(.text) refers to main.o(.bss) for CTport
    mqttclienttask.o(.text) refers to mqttclienttask.o(.constdata) for .constdata
    mqttclienttask.o(.text) refers to main.o(.data) for xQueueState
    mqttclienttask.o(.text) refers to printf8.o(i.__0sprintf$8) for __2sprintf
    key_scan.o(.text) refers to stm32f4xx_rcc.o(.text) for RCC_APB1PeriphClockCmd
    key_scan.o(.text) refers to stm32f4xx_gpio.o(.text) for GPIO_Init
    key_scan.o(.text) refers to stm32f4xx_adc.o(.text) for ADC_Init
    keyscan_task.o(.text) refers to tasks.o(.text) for xTaskGetHandle
    keyscan_task.o(.text) refers to queue.o(.text) for xQueuePeek
    keyscan_task.o(.text) refers to key_scan.o(.text) for Key_Configuration
    keyscan_task.o(.text) refers to printf8.o(i.__0printf$8) for __2printf
    keyscan_task.o(.text) refers to main.o(.data) for xQueueState
    rs485bus_task_m.o(.text) refers to tasks.o(.text) for xTaskGetHandle
    rs485bus_task_m.o(.text) refers to queue.o(.text) for xQueuePeek
    rs485bus_task_m.o(.text) refers to rs485bus_m.o(.text) for eRS485MasterInit
    rs485bus_task_m.o(.text) refers to main.o(.data) for xQueueState
    tcpmbbus_task.o(.text) refers to tasks.o(.text) for xTaskGetHandle
    tcpmbbus_task.o(.text) refers to queue.o(.text) for xQueuePeek
    tcpmbbus_task.o(.text) refers to printf8.o(i.__0printf$8) for __2printf
    tcpmbbus_task.o(.text) refers to mbfuncother.o(.text) for eMBSetSlaveID
    tcpmbbus_task.o(.text) refers to tcp_mb.o(.text) for eMBTCPInit
    tcpmbbus_task.o(.text) refers to main.o(.data) for xQueueState
    tcpmbbus_task.o(.text) refers to tcpmbbus_task.o(.data) for .data
    mqttclient.o(.text) refers to mqttfreertos.o(.text) for TimerLeftMS
    mqttclient.o(.text) refers to mqttpacket.o(.text) for MQTTPacket_encode
    mqttclient.o(.text) refers to mqttconnectclient.o(.text) for MQTTSerialize_pingreq
    mqttclient.o(.text) refers to mqttdeserializepublish.o(.text) for MQTTDeserialize_publish
    mqttclient.o(.text) refers to mqttserializepublish.o(.text) for MQTTSerialize_ack
    mqttclient.o(.text) refers to memcpya.o(.text) for __aeabi_memcpy4
    mqttclient.o(.text) refers to strcmp.o(.text) for strcmp
    mqttclient.o(.text) refers to mqttsubscribeclient.o(.text) for MQTTSerialize_subscribe
    mqttclient.o(.text) refers to mqttunsubscribeclient.o(.text) for MQTTSerialize_unsubscribe
    mqttclient.o(.text) refers to mqttclient.o(.constdata) for .constdata
    mqttfreertos.o(.text) refers to tasks.o(.text) for uxTaskPriorityGet
    mqttfreertos.o(.text) refers to queue.o(.text) for xQueueCreateMutex
    mqttfreertos.o(.text) refers to sockets.o(.text) for lwip_setsockopt
    mqttfreertos.o(.text) refers to inet.o(.text) for htons
    mqttconnectclient.o(.text) refers to mqttpacket.o(.text) for MQTTstrlen
    mqttconnectserver.o(.text) refers to memcmp.o(.text) for memcmp
    mqttconnectserver.o(.text) refers to mqttpacket.o(.text) for readChar
    mqttdeserializepublish.o(.text) refers to mqttpacket.o(.text) for readChar
    mqttformat.o(.text) refers to printf8.o(i.__0snprintf$8) for __2snprintf
    mqttformat.o(.text) refers to mqttformat.o(.data) for .data
    mqttformat.o(.text) refers to mqttformat.o(.conststring) for .conststring
    mqttformat.o(.data) refers to mqttformat.o(.conststring) for .conststring
    mqttpacket.o(.text) refers to strlen.o(.text) for strlen
    mqttpacket.o(.text) refers to memcpya.o(.text) for __aeabi_memcpy
    mqttpacket.o(.text) refers to strncmp.o(.text) for strncmp
    mqttpacket.o(.text) refers to mqttpacket.o(.data) for .data
    mqttserializepublish.o(.text) refers to mqttpacket.o(.text) for MQTTstrlen
    mqttserializepublish.o(.text) refers to memcpya.o(.text) for __aeabi_memcpy
    mqttsubscribeclient.o(.text) refers to mqttpacket.o(.text) for MQTTstrlen
    mqttsubscribeserver.o(.text) refers to mqttpacket.o(.text) for readChar
    mqttunsubscribeclient.o(.text) refers to mqttpacket.o(.text) for MQTTstrlen
    mqttunsubscribeclient.o(.text) refers to mqttdeserializepublish.o(.text) for MQTTDeserialize_ack
    mqttunsubscribeserver.o(.text) refers to mqttpacket.o(.text) for readChar
    rs485crc.o(.text) refers to rs485crc.o(.constdata) for .constdata
    rs485bus_m.o(.text) refers to rs485rtu_m.o(.text) for eRS485MasterRTUInit
    rs485bus_m.o(.text) refers to portevent_m.o(.text) for vMasterOsResInit
    rs485bus_m.o(.text) refers to printf8.o(i.__0printf$8) for __2printf
    rs485bus_m.o(.text) refers to rs485bus_m.o(.data) for .data
    rs485bus_m.o(.data) refers to rs485funcperiodicping_m.o(.text) for eRS485MasterFuncPeriodicPing
    rs485bus_m.o(.data) refers to mbfuncholding_m.o(.text) for eRS485MasterFuncWriteHoldingRegister
    rs485rtu_m.o(.text) refers to tasks.o(.text) for vTaskSuspendAll
    rs485rtu_m.o(.text) refers to portserial_m.o(.text) for xMasterPortSerialInit
    rs485rtu_m.o(.text) refers to porttimer_m.o(.text) for xMasterPortTimersInit
    rs485rtu_m.o(.text) refers to rs485crc.o(.text) for usRS485CRC16
    rs485rtu_m.o(.text) refers to portevent_m.o(.text) for xMasterPortEventPost
    rs485rtu_m.o(.text) refers to rs485bus_m.o(.text) for vMasterSetErrorType
    rs485rtu_m.o(.text) refers to rs485rtu_m.o(.data) for .data
    rs485rtu_m.o(.text) refers to rs485rtu_m.o(.bss) for .bss
    rs485funcperiodicping_m.o(.text) refers to portevent_m.o(.text) for xMasterRunResTake
    rs485funcperiodicping_m.o(.text) refers to rs485rtu_m.o(.text) for vRS485MasterGetPDUSndBuf
    rs485funcperiodicping_m.o(.text) refers to printf8.o(i.__0printf$8) for __2printf
    portserial_m.o(.text) refers to queue.o(.text) for xQueuePeek
    portserial_m.o(.text) refers to stm32f4xx_rcc.o(.text) for RCC_AHB1PeriphClockCmd
    portserial_m.o(.text) refers to stm32f4xx_gpio.o(.text) for GPIO_Init
    portserial_m.o(.text) refers to stm32f4xx_uartstdio.o(.text) for UART_RCC_Configuration
    portserial_m.o(.text) refers to misc.o(.text) for NVIC_Init
    portserial_m.o(.text) refers to stm32f4xx_usart.o(.text) for USART_Init
    portserial_m.o(.text) refers to tasks.o(.text) for xTaskCreate
    portserial_m.o(.text) refers to portserial_m.o(.data) for .data
    portserial_m.o(.text) refers to rs485bus_m.o(.data) for pxMasterFrameCBTransmitterEmpty
    porttimer_m.o(.text) refers to stm32f4xx_rcc.o(.text) for RCC_APB1PeriphClockCmd
    porttimer_m.o(.text) refers to misc.o(.text) for NVIC_Init
    porttimer_m.o(.text) refers to stm32f4xx_tim.o(.text) for TIM_TimeBaseInit
    porttimer_m.o(.text) refers to queue.o(.text) for xQueueGenericCreate
    porttimer_m.o(.text) refers to rs485rtu_m.o(.text) for vMasterSetCurTimerMode
    porttimer_m.o(.text) refers to porttimer_m.o(.data) for .data
    porttimer_m.o(.text) refers to porttimer_m.o(.bss) for .bss
    porttimer_m.o(.text) refers to rs485bus_m.o(.data) for pxMasterPortCBTimerExpired
    user_rs485_app_m.o(.text) refers to rs485bus_m.o(.text) for ucRS485MasterGetDestAddress
    user_rs485_app_m.o(.text) refers to main.o(.bss) for CTport
    portevent_m.o(.text) refers to queue.o(.text) for xQueueGenericCreate
    portevent_m.o(.text) refers to tasks.o(.text) for vTaskDelay
    portevent_m.o(.text) refers to portevent_m.o(.data) for .data
    portevent_m.o(.text) refers to portevent_m.o(.bss) for .bss
    user_rs485_app.o(.text) refers to main.o(.bss) for CTport
    portevent.o(.text) refers to queue.o(.text) for xQueueGenericCreate
    portevent.o(.text) refers to tasks.o(.text) for vTaskDelay
    portevent.o(.text) refers to portevent.o(.data) for .data
    mbfuncholding_m.o(.text) refers to printf8.o(i.__0printf$8) for __2printf
    mbfuncholding_m.o(.text) refers to portevent_m.o(.text) for xMasterRunResTake
    mbfuncholding_m.o(.text) refers to rs485rtu_m.o(.text) for vRS485MasterGetPDUSndBuf
    mbfuncholding_m.o(.text) refers to rs485bus_m.o(.text) for vRS485MasterSetDestAddress
    mbfuncholding_m.o(.text) refers to user_rs485_app_m.o(.text) for eRS485MasterRegHoldingCB
    mbfuncholding_m.o(.text) refers to mbutils.o(.text) for prveMBError2Exception
    api_lib.o(.text) refers to api_msg.o(.text) for netconn_alloc
    api_lib.o(.text) refers to tcpip.o(.text) for tcpip_apimsg
    api_lib.o(.text) refers to sys_arch.o(.text) for sys_sem_free
    api_lib.o(.text) refers to memp.o(.text) for memp_free
    api_msg.o(.text) refers to pbuf.o(.text) for pbuf_alloc
    api_msg.o(.text) refers to memp.o(.text) for memp_malloc
    api_msg.o(.text) refers to sys_arch.o(.text) for sys_mbox_trypost
    api_msg.o(.text) refers to netbuf.o(.text) for netbuf_delete
    api_msg.o(.text) refers to tcp_out.o(.text) for tcp_write
    api_msg.o(.text) refers to tcp.o(.text) for tcp_arg
    api_msg.o(.text) refers to api_lib.o(.text) for netconn_delete
    api_msg.o(.text) refers to raw.o(.text) for raw_remove
    api_msg.o(.text) refers to udp.o(.text) for udp_remove
    err.o(.text) refers to err.o(.data) for .data
    err.o(.data) refers to err.o(.conststring) for .conststring
    netbuf.o(.text) refers to memp.o(.text) for memp_malloc
    netbuf.o(.text) refers to pbuf.o(.text) for pbuf_free
    sockets.o(.text) refers to sys_arch.o(.text) for sys_sem_new
    sockets.o(.text) refers to sys.o(.text) for sys_sem_wait
    sockets.o(.text) refers to api_lib.o(.text) for netconn_accept
    sockets.o(.text) refers to inet.o(.text) for htons
    sockets.o(.text) refers to memcpya.o(.text) for __aeabi_memcpy
    sockets.o(.text) refers to netbuf.o(.text) for netbuf_delete
    sockets.o(.text) refers to sockets.o(.data) for .data
    sockets.o(.text) refers to sockets.o(.bss) for .bss
    sockets.o(.text) refers to sockets.o(.constdata) for .constdata
    sockets.o(.text) refers to pbuf.o(.text) for pbuf_copy_partial
    sockets.o(.text) refers to tcpip.o(.text) for tcpip_callback_with_block
    tcpip.o(.text) refers to tcp.o(.text) for tcp_tmr
    tcpip.o(.text) refers to sys.o(.text) for sys_timeout
    tcpip.o(.text) refers to etharp.o(.text) for etharp_tmr
    tcpip.o(.text) refers to dhcp.o(.text) for dhcp_coarse_tmr
    tcpip.o(.text) refers to autoip.o(.text) for autoip_tmr
    tcpip.o(.text) refers to ip.o(.text) for ip_input
    tcpip.o(.text) refers to memp.o(.text) for memp_free
    tcpip.o(.text) refers to sys_arch.o(.text) for sys_mbox_trypost
    tcpip.o(.text) refers to init.o(.text) for lwip_init
    tcpip.o(.text) refers to pbuf.o(.text) for pbuf_free
    tcpip.o(.text) refers to tcp.o(.data) for tcp_active_pcbs
    tcpip.o(.text) refers to tcpip.o(.data) for .data
    tcpip.o(.text) refers to mem.o(.text) for mem_free
    dhcp.o(.text) refers to pbuf.o(.text) for pbuf_alloc
    dhcp.o(.text) refers to inet.o(.text) for htonl
    dhcp.o(.text) refers to udp.o(.text) for udp_sendto_if
    dhcp.o(.text) refers to etharp.o(.text) for etharp_query
    dhcp.o(.text) refers to strlen.o(.text) for strlen
    dhcp.o(.text) refers to dhcp.o(.data) for .data
    dhcp.o(.text) refers to ip_addr.o(.constdata) for ip_addr_any
    dhcp.o(.text) refers to ip_addr.o(.constdata) for ip_addr_broadcast
    dhcp.o(.text) refers to netif.o(.text) for netif_set_down
    dhcp.o(.text) refers to netif.o(.data) for netif_list
    dhcp.o(.text) refers to mem.o(.text) for mem_free
    dhcp.o(.text) refers to memseta.o(.text) for __aeabi_memclr4
    init.o(.text) refers to sys_arch.o(.text) for sys_init
    init.o(.text) refers to mem.o(.text) for mem_init
    init.o(.text) refers to memp.o(.text) for memp_init
    init.o(.text) refers to sockets.o(.text) for lwip_socket_init
    init.o(.text) refers to autoip.o(.text) for autoip_init
    mem.o(.text) refers to sys_arch.o(.text) for sys_sem_new
    mem.o(.text) refers to memseta.o(.text) for __aeabi_memclr
    mem.o(.text) refers to mem.o(.bss) for .bss
    mem.o(.text) refers to mem.o(.data) for .data
    memp.o(.text) refers to memp.o(.bss) for .bss
    memp.o(.text) refers to memp.o(.constdata) for .constdata
    memp.o(.data) refers to memp.o(.conststring) for .conststring
    netif.o(.text) refers to tcp.o(.text) for tcp_abandon
    netif.o(.text) refers to etharp.o(.text) for etharp_request
    netif.o(.text) refers to tcp.o(.data) for tcp_active_pcbs
    netif.o(.text) refers to netif.o(.data) for .data
    pbuf.o(.text) refers to mem.o(.text) for mem_free
    pbuf.o(.text) refers to memp.o(.text) for memp_free
    pbuf.o(.text) refers to memcpya.o(.text) for __aeabi_memcpy
    raw.o(.text) refers to inet.o(.text) for ntohs
    raw.o(.text) refers to pbuf.o(.text) for pbuf_header
    raw.o(.text) refers to ip.o(.text) for ip_route
    raw.o(.text) refers to memp.o(.text) for memp_free
    raw.o(.text) refers to memseta.o(.text) for __aeabi_memclr4
    raw.o(.text) refers to raw.o(.data) for .data
    sys.o(.text) refers to sys_arch.o(.text) for sys_arch_timeouts
    sys.o(.text) refers to memp.o(.text) for memp_free
    tcp.o(.text) refers to pbuf.o(.text) for pbuf_free
    tcp.o(.text) refers to memp.o(.text) for memp_free
    tcp.o(.text) refers to tcp_out.o(.text) for tcp_zero_window_probe
    tcp.o(.text) refers to tcp.o(.data) for .data
    tcp.o(.text) refers to tcp.o(.constdata) for .constdata
    tcp.o(.text) refers to tcpip.o(.text) for tcp_timer_needed
    tcp.o(.text) refers to ip.o(.text) for ip_route
    tcp.o(.text) refers to memseta.o(.text) for __aeabi_memclr4
    tcp.o(.data) refers to tcp.o(.conststring) for .conststring
    tcp_in.o(.text) refers to tcp_out.o(.text) for tcp_rexmit_fast
    tcp_in.o(.text) refers to pbuf.o(.text) for pbuf_clen
    tcp_in.o(.text) refers to inet.o(.text) for ntohs
    tcp_in.o(.text) refers to tcp.o(.text) for tcp_seg_free
    tcp_in.o(.text) refers to tcp_in.o(.data) for .data
    tcp_in.o(.text) refers to tcp.o(.data) for tcp_ticks
    tcp_in.o(.text) refers to tcp_in.o(.bss) for .bss
    tcp_in.o(.text) refers to tcpip.o(.text) for tcp_timer_needed
    tcp_in.o(.text) refers to ip_addr.o(.text) for ip_addr_isbroadcast
    tcp_in.o(.text) refers to memp.o(.text) for memp_free
    tcp_out.o(.text) refers to inet.o(.text) for htons
    tcp_out.o(.text) refers to memp.o(.text) for memp_malloc
    tcp_out.o(.text) refers to pbuf.o(.text) for pbuf_alloc
    tcp_out.o(.text) refers to memcpya.o(.text) for __aeabi_memcpy
    tcp_out.o(.text) refers to tcp.o(.text) for tcp_segs_free
    tcp_out.o(.text) refers to ip.o(.text) for ip_output
    tcp_out.o(.text) refers to tcp.o(.data) for tcp_ticks
    tcp_out.o(.text) refers to tcp_in.o(.data) for tcp_input_pcb
    udp.o(.text) refers to inet.o(.text) for ntohs
    udp.o(.text) refers to pbuf.o(.text) for pbuf_header
    udp.o(.text) refers to ip_addr.o(.text) for ip_addr_isbroadcast
    udp.o(.text) refers to icmp.o(.text) for icmp_dest_unreach
    udp.o(.text) refers to ip.o(.text) for ip_output_if
    udp.o(.text) refers to memp.o(.text) for memp_free
    udp.o(.text) refers to memseta.o(.text) for __aeabi_memclr4
    udp.o(.text) refers to udp.o(.data) for .data
    udp.o(.text) refers to ip_addr.o(.constdata) for ip_addr_any
    autoip.o(.text) refers to netif.o(.text) for netif_is_up
    autoip.o(.text) refers to inet.o(.text) for htonl
    autoip.o(.text) refers to mem.o(.text) for mem_malloc
    autoip.o(.text) refers to etharp.o(.text) for etharp_raw
    autoip.o(.text) refers to memcmp.o(.text) for memcmp
    autoip.o(.text) refers to netif.o(.data) for netif_list
    autoip.o(.text) refers to etharp.o(.constdata) for ethzero
    autoip.o(.text) refers to ip_addr.o(.constdata) for ip_addr_any
    icmp.o(.text) refers to inet.o(.text) for ntohs
    icmp.o(.text) refers to pbuf.o(.text) for pbuf_header
    icmp.o(.text) refers to ip_addr.o(.text) for ip_addr_isbroadcast
    icmp.o(.text) refers to inet_chksum.o(.text) for inet_chksum_pbuf
    icmp.o(.text) refers to ip.o(.text) for ip_output_if
    icmp.o(.text) refers to memcpya.o(.text) for __aeabi_memcpy
    inet.o(.text) refers to inet.o(.bss) for .bss
    inet_chksum.o(.text) refers to inet.o(.text) for htons
    ip.o(.text) refers to netif.o(.text) for netif_is_up
    ip.o(.text) refers to inet.o(.text) for ntohs
    ip.o(.text) refers to pbuf.o(.text) for pbuf_free
    ip.o(.text) refers to ip_addr.o(.text) for ip_addr_isbroadcast
    ip.o(.text) refers to raw.o(.text) for raw_input
    ip.o(.text) refers to udp.o(.text) for udp_input
    ip.o(.text) refers to tcp_in.o(.text) for tcp_input
    ip.o(.text) refers to icmp.o(.text) for icmp_input
    ip.o(.text) refers to netif.o(.data) for netif_list
    ip.o(.text) refers to ip.o(.data) for .data
    etharp.o(.text) refers to inet.o(.text) for htons
    etharp.o(.text) refers to ip_addr.o(.text) for ip_addr_isbroadcast
    etharp.o(.text) refers to autoip.o(.text) for autoip_arp_reply
    etharp.o(.text) refers to dhcp.o(.text) for dhcp_arp_reply
    etharp.o(.text) refers to pbuf.o(.text) for pbuf_free
    etharp.o(.text) refers to etharp.o(.bss) for .bss
    etharp.o(.text) refers to etharp.o(.data) for .data
    etharp.o(.text) refers to etharp.o(.constdata) for .constdata
    etharp.o(.text) refers to ip.o(.text) for ip_input
    ethernetif.o(.text) refers to queue.o(.text) for xQueueSemaphoreTake
    ethernetif.o(.text) refers to pbuf.o(.text) for pbuf_free
    ethernetif.o(.text) refers to memcpya.o(.text) for __aeabi_memcpy
    ethernetif.o(.text) refers to stm32f4x7_eth.o(.text) for ETH_Prepare_Transmit_Descriptors
    ethernetif.o(.text) refers to etharp.o(.text) for etharp_tmr
    ethernetif.o(.text) refers to sys.o(.text) for sys_timeout
    ethernetif.o(.text) refers to tasks.o(.text) for xTaskCreate
    ethernetif.o(.text) refers to ethernetif.o(.data) for .data
    ethernetif.o(.text) refers to stm32f4x7_eth.o(.data) for DMATxDescToSet
    ethernetif.o(.text) refers to stm32f4x7_eth.o(.bss) for Tx_Buff
    ethernetif.o(.text) refers to stm32f4x7_eth.o(.bss) for DMATxDscrTab
    ethernetif.o(.text) refers to stm32f4x7_eth.o(.bss) for Rx_Buff
    ethernetif.o(.text) refers to stm32f4x7_eth.o(.bss) for DMARxDscrTab
    sys_arch.o(.text) refers to queue.o(.text) for xQueueGenericCreate
    sys_arch.o(.text) refers to tasks.o(.text) for xTaskGetTickCount
    sys_arch.o(.text) refers to port.o(.text) for vPortEnterCritical
    sys_arch.o(.text) refers to sys_arch.o(.bss) for .bss
    sys_arch.o(.text) refers to sys_arch.o(.data) for .data
    stm32f4xx_uartstdio.o(.text) refers to stm32f4xx_rcc.o(.text) for RCC_APB2PeriphClockCmd
    stm32f4xx_uartstdio.o(.text) refers to stm32f4xx_gpio.o(.text) for GPIO_Init
    stm32f4xx_uartstdio.o(.text) refers to stm32f4xx_usart.o(.text) for USART_Init
    stm32f4xx_uartstdio.o(.text) refers to stm32f4xx_uartstdio.o(.data) for .data
    stm32f4xx_uartstdio.o(.text) refers to stm32f4xx_uartstdio.o(.constdata) for .constdata
    stm32f4xx_uartstdio.o(.constdata) refers to stm32f4xx_uartstdio.o(.conststring) for .conststring
    stm32f4_discovery_lcd.o(.text) refers to stm32f4xx_fsmc.o(.text) for FSMC_NORSRAMCmd
    stm32f4_discovery_lcd.o(.text) refers to stm32f4xx_gpio.o(.text) for GPIO_Init
    stm32f4_discovery_lcd.o(.text) refers to stm32f4xx_rcc.o(.text) for RCC_AHB1PeriphClockCmd
    stm32f4_discovery_lcd.o(.text) refers to stm32f4_discovery_lcd.o(.data) for .data
    stm32f4_discovery_lcd.o(.text) refers to dfltui.o(.text) for __aeabi_ui2d
    stm32f4_discovery_lcd.o(.text) refers to dflti.o(.text) for __aeabi_i2d
    stm32f4_discovery_lcd.o(.text) refers to cdcmple.o(.text) for __aeabi_cdcmple
    stm32f4_discovery_lcd.o(.text) refers to cdrcmple.o(.text) for __aeabi_cdrcmple
    stm32f4_discovery_lcd.o(.data) refers to stm32f4_discovery_lcd.o(.constdata) for ASCII16x24_Table
    stm32f4_discovery_lcd.o(.data) refers to stm32f4_discovery_lcd.o(.constdata) for ASCII12x12_Table
    stm32f4_discovery_lcd.o(.data) refers to stm32f4_discovery_lcd.o(.constdata) for ASCII8x12_Table
    stm32f4_discovery_lcd.o(.data) refers to stm32f4_discovery_lcd.o(.constdata) for ASCII8x8_Table
    stm32f4_discovery.o(.text) refers to stm32f4xx_rcc.o(.text) for RCC_AHB1PeriphClockCmd
    stm32f4_discovery.o(.text) refers to stm32f4xx_gpio.o(.text) for GPIO_Init
    stm32f4_discovery.o(.text) refers to printf8.o(i.__0printf$8) for __2printf
    stm32f4_discovery.o(.text) refers to stm32f4xx_syscfg.o(.text) for SYSCFG_EXTILineConfig
    stm32f4_discovery.o(.text) refers to stm32f4xx_exti.o(.text) for EXTI_Init
    stm32f4_discovery.o(.text) refers to misc.o(.text) for NVIC_Init
    stm32f4_discovery.o(.text) refers to stm32f4xx_usart.o(.text) for USART_Init
    stm32f4_discovery.o(.text) refers to stm32f4xx_sdio.o(.text) for SDIO_ClockCmd
    stm32f4_discovery.o(.text) refers to stm32f4xx_dma.o(.text) for DMA_ClearFlag
    stm32f4_discovery.o(.text) refers to stm32f4_discovery.o(.constdata) for .constdata
    stm32f4_discovery.o(.text) refers to stm32f4_discovery.o(.data) for .data
    tm_stm32f4_i2c.o(.text) refers to stm32f4xx_gpio.o(.text) for GPIO_PinAFConfig
    tm_stm32f4_i2c.o(.text) refers to stm32f4xx_i2c.o(.text) for I2C_Init
    tm_stm32f4_i2c.o(.text) refers to tm_stm32f4_i2c.o(.data) for .data
    stm32f4x7_eth.o(.text) refers to stm32f4xx_rcc.o(.text) for RCC_AHB1PeriphResetCmd
    stm32f4x7_eth.o(.text) refers to stm32f4x7_eth.o(.data) for .data
    stm32f4x7_eth.o(.text) refers to stm32f4x7_eth.o(.bss) for .bss
    stm32f4xx_usart.o(.text) refers to stm32f4xx_rcc.o(.text) for RCC_APB2PeriphResetCmd
    stm32f4xx_adc.o(.text) refers to stm32f4xx_rcc.o(.text) for RCC_APB2PeriphResetCmd
    stm32f4xx_gpio.o(.text) refers to stm32f4xx_rcc.o(.text) for RCC_AHB1PeriphResetCmd
    stm32f4xx_rcc.o(.text) refers to stm32f4xx_rcc.o(.data) for .data
    stm32f4xx_syscfg.o(.text) refers to stm32f4xx_rcc.o(.text) for RCC_APB2PeriphResetCmd
    stm32f4xx_sdio.o(.text) refers to stm32f4xx_rcc.o(.text) for RCC_APB2PeriphResetCmd
    stm32f4xx_tim.o(.text) refers to stm32f4xx_rcc.o(.text) for RCC_APB2PeriphResetCmd
    stm32f4xx_spi.o(.text) refers to stm32f4xx_rcc.o(.text) for RCC_APB2PeriphResetCmd
    stm32f4xx_i2c.o(.text) refers to stm32f4xx_rcc.o(.text) for RCC_APB1PeriphResetCmd
    stm32f4xx_pwr.o(.text) refers to stm32f4xx_rcc.o(.text) for RCC_APB1PeriphResetCmd
    queue.o(.text) refers to port.o(.text) for vPortEnterCritical
    queue.o(.text) refers to list.o(.text) for vListInitialise
    queue.o(.text) refers to tasks.o(.text) for xTaskRemoveFromEventList
    queue.o(.text) refers to heap_2.o(.text) for pvPortMalloc
    queue.o(.text) refers to memcpya.o(.text) for __aeabi_memcpy
    queue.o(.text) refers to queue.o(.bss) for .bss
    tasks.o(.text) refers to port.o(.text) for vPortEnterCritical
    tasks.o(.text) refers to list.o(.text) for vListInitialise
    tasks.o(.text) refers to heap_2.o(.text) for pvPortMalloc
    tasks.o(.text) refers to tasks.o(.data) for .data
    tasks.o(.text) refers to tasks.o(.bss) for .bss
    tasks.o(.text) refers to main.o(.text) for vApplicationStackOverflowHook
    tasks.o(.text) refers to strlen.o(.text) for strlen
    tasks.o(.text) refers to memseta.o(.text) for __aeabi_memset
    port.o(.emb_text) refers to tasks.o(.text) for vTaskSwitchContext
    port.o(.emb_text) refers to tasks.o(.data) for pxCurrentTCB
    port.o(.text) refers to port.o(.emb_text) for __asm___6_port_c_39a90d8d__prvEnableVFP
    port.o(.text) refers to tasks.o(.text) for xTaskIncrementTick
    port.o(.text) refers to port.o(.data) for .data
    port.o(.text) refers to system_stm32f4xx.o(.data) for SystemCoreClock
    heap_2.o(.text) refers to tasks.o(.text) for vTaskSuspendAll
    heap_2.o(.text) refers to heap_2.o(.data) for .data
    heap_2.o(.text) refers to heap_2.o(.bss) for .bss
    event_groups.o(.text) refers to heap_2.o(.text) for pvPortMalloc
    event_groups.o(.text) refers to list.o(.text) for vListInitialise
    event_groups.o(.text) refers to tasks.o(.text) for vTaskSuspendAll
    event_groups.o(.text) refers to port.o(.text) for vPortEnterCritical
    stream_buffer.o(.text) refers to memseta.o(.text) for memset
    stream_buffer.o(.text) refers to heap_2.o(.text) for pvPortMalloc
    stream_buffer.o(.text) refers to memcpya.o(.text) for __aeabi_memcpy
    stream_buffer.o(.text) refers to tasks.o(.text) for vTaskSetTimeOutState
    stream_buffer.o(.text) refers to port.o(.text) for vPortEnterCritical
    startup_stm32f4xx.o(RESET) refers to startup_stm32f4xx.o(STACK) for __initial_sp
    startup_stm32f4xx.o(RESET) refers to startup_stm32f4xx.o(.text) for Reset_Handler
    startup_stm32f4xx.o(RESET) refers to stm32f4xx_it.o(.text) for NMI_Handler
    startup_stm32f4xx.o(RESET) refers to port.o(.emb_text) for vPortSVCHandler
    startup_stm32f4xx.o(RESET) refers to porttimer_m.o(.text) for TIM2_IRQHandler
    startup_stm32f4xx.o(RESET) refers to portserial_m.o(.text) for USART2_IRQHandler
    startup_stm32f4xx.o(.text) refers to system_stm32f4xx.o(.text) for SystemInit
    startup_stm32f4xx.o(.text) refers to entry.o(.ARM.Collect$$$$00000000) for __main
    tcp_mb.o(.text) refers to mbtcp.o(.text) for eMBTCPDoInit
    tcp_mb.o(.text) refers to portevent_tcp.o(.text) for xMBPortEventInit
    tcp_mb.o(.text) refers to tasks.o(.text) for vTaskSuspendAll
    tcp_mb.o(.text) refers to tcp_mb.o(.data) for .data
    tcp_mb.o(.text) refers to tcp_mb.o(.bss) for .bss
    mbtcp.o(.text) refers to port_tcp.o(.text) for xMBTCPPortInit
    port_tcp.o(.text) refers to tcp.o(.text) for tcp_close
    port_tcp.o(.text) refers to inet.o(.text) for ntohl
    port_tcp.o(.text) refers to portother_tcp.o(.text) for vMBPortLog
    port_tcp.o(.text) refers to memcpya.o(.text) for __aeabi_memcpy
    port_tcp.o(.text) refers to portevent_tcp.o(.text) for xMBPortEventPost
    port_tcp.o(.text) refers to pbuf.o(.text) for pbuf_free
    port_tcp.o(.text) refers to tcp_out.o(.text) for tcp_write
    port_tcp.o(.text) refers to port_tcp.o(.data) for .data
    port_tcp.o(.text) refers to port_tcp.o(.bss) for .bss
    port_tcp.o(.text) refers to ip_addr.o(.constdata) for ip_addr_any
    portevent_tcp.o(.text) refers to portevent_tcp.o(.data) for .data
    portother_tcp.o(.text) refers to printf8.o(i.__0printf$8) for __2printf
    portother_tcp.o(.text) refers to printfa.o(i.__0vprintf) for __c89vprintf
    portother_tcp.o(.text) refers to printf8.o(i.__0snprintf$8) for __2snprintf
    portother_tcp.o(.text) refers to portother_tcp.o(.data) for .data
    portother_tcp.o(.text) refers to portother_tcp.o(.bss) for .bss
    portother_tcp.o(.data) refers to portother_tcp.o(.conststring) for .conststring
    mbfunccoils.o(.text) refers to mbutils.o(.text) for prveMBError2Exception
    mbfuncdisc.o(.text) refers to mbutils.o(.text) for prveMBError2Exception
    mbfuncholding.o(.text) refers to mbutils.o(.text) for prveMBError2Exception
    mbfuncinput.o(.text) refers to mbutils.o(.text) for prveMBError2Exception
    mbfuncother.o(.text) refers to memcpya.o(.text) for __aeabi_memcpy
    mbfuncother.o(.text) refers to mbfuncother.o(.data) for .data
    mbfuncother.o(.text) refers to mbfuncother.o(.bss) for .bss
    entry.o(.ARM.Collect$$$$00000000) refers (Special) to entry10a.o(.ARM.Collect$$$$0000000D) for __rt_final_cpp
    entry.o(.ARM.Collect$$$$00000000) refers (Special) to entry11a.o(.ARM.Collect$$$$0000000F) for __rt_final_exit
    entry.o(.ARM.Collect$$$$00000000) refers (Special) to entry7b.o(.ARM.Collect$$$$00000008) for _main_clock
    entry.o(.ARM.Collect$$$$00000000) refers (Special) to entry8b.o(.ARM.Collect$$$$0000000A) for _main_cpp_init
    entry.o(.ARM.Collect$$$$00000000) refers (Special) to entry9a.o(.ARM.Collect$$$$0000000B) for _main_init
    entry.o(.ARM.Collect$$$$00000000) refers (Special) to entry5.o(.ARM.Collect$$$$00000004) for _main_scatterload
    entry.o(.ARM.Collect$$$$00000000) refers (Special) to entry2.o(.ARM.Collect$$$$00000001) for _main_stk
    printfb.o(i.__0fprintf$bare) refers to printfb.o(i._printf_core) for _printf_core
    printfb.o(i.__0fprintf$bare) refers to stm32f4xx_uartstdio.o(.text) for fputc
    printfb.o(i.__0printf$bare) refers to printfb.o(i._printf_core) for _printf_core
    printfb.o(i.__0printf$bare) refers to stm32f4xx_uartstdio.o(.text) for fputc
    printfb.o(i.__0printf$bare) refers to stm32f4xx_uartstdio.o(.data) for __stdout
    printfb.o(i.__0snprintf$bare) refers to printfb.o(i._printf_core) for _printf_core
    printfb.o(i.__0snprintf$bare) refers to printfb.o(i._snputc) for _snputc
    printfb.o(i.__0sprintf$bare) refers to printfb.o(i._printf_core) for _printf_core
    printfb.o(i.__0sprintf$bare) refers to printfb.o(i._sputc) for _sputc
    printfb.o(i.__0vfprintf$bare) refers to printfb.o(i._printf_core) for _printf_core
    printfb.o(i.__0vfprintf$bare) refers to stm32f4xx_uartstdio.o(.text) for fputc
    printfb.o(i.__0vprintf$bare) refers to printfb.o(i._printf_core) for _printf_core
    printfb.o(i.__0vprintf$bare) refers to stm32f4xx_uartstdio.o(.text) for fputc
    printfb.o(i.__0vprintf$bare) refers to stm32f4xx_uartstdio.o(.data) for __stdout
    printfb.o(i.__0vsnprintf$bare) refers to printfb.o(i._printf_core) for _printf_core
    printfb.o(i.__0vsnprintf$bare) refers to printfb.o(i._snputc) for _snputc
    printfb.o(i.__0vsprintf$bare) refers to printfb.o(i._printf_core) for _printf_core
    printfb.o(i.__0vsprintf$bare) refers to printfb.o(i._sputc) for _sputc
    printf0.o(i.__0fprintf$0) refers to printf0.o(i._printf_core) for _printf_core
    printf0.o(i.__0fprintf$0) refers to stm32f4xx_uartstdio.o(.text) for fputc
    printf0.o(i.__0printf$0) refers to printf0.o(i._printf_core) for _printf_core
    printf0.o(i.__0printf$0) refers to stm32f4xx_uartstdio.o(.text) for fputc
    printf0.o(i.__0printf$0) refers to stm32f4xx_uartstdio.o(.data) for __stdout
    printf0.o(i.__0snprintf$0) refers to printf0.o(i._printf_core) for _printf_core
    printf0.o(i.__0snprintf$0) refers to printf0.o(i._snputc) for _snputc
    printf0.o(i.__0sprintf$0) refers to printf0.o(i._printf_core) for _printf_core
    printf0.o(i.__0sprintf$0) refers to printf0.o(i._sputc) for _sputc
    printf0.o(i.__0vfprintf$0) refers to printf0.o(i._printf_core) for _printf_core
    printf0.o(i.__0vfprintf$0) refers to stm32f4xx_uartstdio.o(.text) for fputc
    printf0.o(i.__0vprintf$0) refers to printf0.o(i._printf_core) for _printf_core
    printf0.o(i.__0vprintf$0) refers to stm32f4xx_uartstdio.o(.text) for fputc
    printf0.o(i.__0vprintf$0) refers to stm32f4xx_uartstdio.o(.data) for __stdout
    printf0.o(i.__0vsnprintf$0) refers to printf0.o(i._printf_core) for _printf_core
    printf0.o(i.__0vsnprintf$0) refers to printf0.o(i._snputc) for _snputc
    printf0.o(i.__0vsprintf$0) refers to printf0.o(i._printf_core) for _printf_core
    printf0.o(i.__0vsprintf$0) refers to printf0.o(i._sputc) for _sputc
    printf1.o(i.__0fprintf$1) refers to printf1.o(i._printf_core) for _printf_core
    printf1.o(i.__0fprintf$1) refers to stm32f4xx_uartstdio.o(.text) for fputc
    printf1.o(i.__0printf$1) refers to printf1.o(i._printf_core) for _printf_core
    printf1.o(i.__0printf$1) refers to stm32f4xx_uartstdio.o(.text) for fputc
    printf1.o(i.__0printf$1) refers to stm32f4xx_uartstdio.o(.data) for __stdout
    printf1.o(i.__0snprintf$1) refers to printf1.o(i._printf_core) for _printf_core
    printf1.o(i.__0snprintf$1) refers to printf1.o(i._snputc) for _snputc
    printf1.o(i.__0sprintf$1) refers to printf1.o(i._printf_core) for _printf_core
    printf1.o(i.__0sprintf$1) refers to printf1.o(i._sputc) for _sputc
    printf1.o(i.__0vfprintf$1) refers to printf1.o(i._printf_core) for _printf_core
    printf1.o(i.__0vfprintf$1) refers to stm32f4xx_uartstdio.o(.text) for fputc
    printf1.o(i.__0vprintf$1) refers to printf1.o(i._printf_core) for _printf_core
    printf1.o(i.__0vprintf$1) refers to stm32f4xx_uartstdio.o(.text) for fputc
    printf1.o(i.__0vprintf$1) refers to stm32f4xx_uartstdio.o(.data) for __stdout
    printf1.o(i.__0vsnprintf$1) refers to printf1.o(i._printf_core) for _printf_core
    printf1.o(i.__0vsnprintf$1) refers to printf1.o(i._snputc) for _snputc
    printf1.o(i.__0vsprintf$1) refers to printf1.o(i._printf_core) for _printf_core
    printf1.o(i.__0vsprintf$1) refers to printf1.o(i._sputc) for _sputc
    printf1.o(i._printf_core) refers to uidiv.o(.text) for __aeabi_uidivmod
    printf2.o(i.__0fprintf$2) refers to printf2.o(i._printf_core) for _printf_core
    printf2.o(i.__0fprintf$2) refers to stm32f4xx_uartstdio.o(.text) for fputc
    printf2.o(i.__0printf$2) refers to printf2.o(i._printf_core) for _printf_core
    printf2.o(i.__0printf$2) refers to stm32f4xx_uartstdio.o(.text) for fputc
    printf2.o(i.__0printf$2) refers to stm32f4xx_uartstdio.o(.data) for __stdout
    printf2.o(i.__0snprintf$2) refers to printf2.o(i._printf_core) for _printf_core
    printf2.o(i.__0snprintf$2) refers to printf2.o(i._snputc) for _snputc
    printf2.o(i.__0sprintf$2) refers to printf2.o(i._printf_core) for _printf_core
    printf2.o(i.__0sprintf$2) refers to printf2.o(i._sputc) for _sputc
    printf2.o(i.__0vfprintf$2) refers to printf2.o(i._printf_core) for _printf_core
    printf2.o(i.__0vfprintf$2) refers to stm32f4xx_uartstdio.o(.text) for fputc
    printf2.o(i.__0vprintf$2) refers to printf2.o(i._printf_core) for _printf_core
    printf2.o(i.__0vprintf$2) refers to stm32f4xx_uartstdio.o(.text) for fputc
    printf2.o(i.__0vprintf$2) refers to stm32f4xx_uartstdio.o(.data) for __stdout
    printf2.o(i.__0vsnprintf$2) refers to printf2.o(i._printf_core) for _printf_core
    printf2.o(i.__0vsnprintf$2) refers to printf2.o(i._snputc) for _snputc
    printf2.o(i.__0vsprintf$2) refers to printf2.o(i._printf_core) for _printf_core
    printf2.o(i.__0vsprintf$2) refers to printf2.o(i._sputc) for _sputc
    printf3.o(i.__0fprintf$3) refers to printf3.o(i._printf_core) for _printf_core
    printf3.o(i.__0fprintf$3) refers to stm32f4xx_uartstdio.o(.text) for fputc
    printf3.o(i.__0printf$3) refers to printf3.o(i._printf_core) for _printf_core
    printf3.o(i.__0printf$3) refers to stm32f4xx_uartstdio.o(.text) for fputc
    printf3.o(i.__0printf$3) refers to stm32f4xx_uartstdio.o(.data) for __stdout
    printf3.o(i.__0snprintf$3) refers to printf3.o(i._printf_core) for _printf_core
    printf3.o(i.__0snprintf$3) refers to printf3.o(i._snputc) for _snputc
    printf3.o(i.__0sprintf$3) refers to printf3.o(i._printf_core) for _printf_core
    printf3.o(i.__0sprintf$3) refers to printf3.o(i._sputc) for _sputc
    printf3.o(i.__0vfprintf$3) refers to printf3.o(i._printf_core) for _printf_core
    printf3.o(i.__0vfprintf$3) refers to stm32f4xx_uartstdio.o(.text) for fputc
    printf3.o(i.__0vprintf$3) refers to printf3.o(i._printf_core) for _printf_core
    printf3.o(i.__0vprintf$3) refers to stm32f4xx_uartstdio.o(.text) for fputc
    printf3.o(i.__0vprintf$3) refers to stm32f4xx_uartstdio.o(.data) for __stdout
    printf3.o(i.__0vsnprintf$3) refers to printf3.o(i._printf_core) for _printf_core
    printf3.o(i.__0vsnprintf$3) refers to printf3.o(i._snputc) for _snputc
    printf3.o(i.__0vsprintf$3) refers to printf3.o(i._printf_core) for _printf_core
    printf3.o(i.__0vsprintf$3) refers to printf3.o(i._sputc) for _sputc
    printf3.o(i._printf_core) refers to uidiv.o(.text) for __aeabi_uidivmod
    printf4.o(i.__0fprintf$4) refers to printf4.o(i._printf_core) for _printf_core
    printf4.o(i.__0fprintf$4) refers to stm32f4xx_uartstdio.o(.text) for fputc
    printf4.o(i.__0printf$4) refers to printf4.o(i._printf_core) for _printf_core
    printf4.o(i.__0printf$4) refers to stm32f4xx_uartstdio.o(.text) for fputc
    printf4.o(i.__0printf$4) refers to stm32f4xx_uartstdio.o(.data) for __stdout
    printf4.o(i.__0snprintf$4) refers to printf4.o(i._printf_core) for _printf_core
    printf4.o(i.__0snprintf$4) refers to printf4.o(i._snputc) for _snputc
    printf4.o(i.__0sprintf$4) refers to printf4.o(i._printf_core) for _printf_core
    printf4.o(i.__0sprintf$4) refers to printf4.o(i._sputc) for _sputc
    printf4.o(i.__0vfprintf$4) refers to printf4.o(i._printf_core) for _printf_core
    printf4.o(i.__0vfprintf$4) refers to stm32f4xx_uartstdio.o(.text) for fputc
    printf4.o(i.__0vprintf$4) refers to printf4.o(i._printf_core) for _printf_core
    printf4.o(i.__0vprintf$4) refers to stm32f4xx_uartstdio.o(.text) for fputc
    printf4.o(i.__0vprintf$4) refers to stm32f4xx_uartstdio.o(.data) for __stdout
    printf4.o(i.__0vsnprintf$4) refers to printf4.o(i._printf_core) for _printf_core
    printf4.o(i.__0vsnprintf$4) refers to printf4.o(i._snputc) for _snputc
    printf4.o(i.__0vsprintf$4) refers to printf4.o(i._printf_core) for _printf_core
    printf4.o(i.__0vsprintf$4) refers to printf4.o(i._sputc) for _sputc
    printf4.o(i._printf_core) refers to uldiv.o(.text) for __aeabi_uldivmod
    printf5.o(i.__0fprintf$5) refers to printf5.o(i._printf_core) for _printf_core
    printf5.o(i.__0fprintf$5) refers to stm32f4xx_uartstdio.o(.text) for fputc
    printf5.o(i.__0printf$5) refers to printf5.o(i._printf_core) for _printf_core
    printf5.o(i.__0printf$5) refers to stm32f4xx_uartstdio.o(.text) for fputc
    printf5.o(i.__0printf$5) refers to stm32f4xx_uartstdio.o(.data) for __stdout
    printf5.o(i.__0snprintf$5) refers to printf5.o(i._printf_core) for _printf_core
    printf5.o(i.__0snprintf$5) refers to printf5.o(i._snputc) for _snputc
    printf5.o(i.__0sprintf$5) refers to printf5.o(i._printf_core) for _printf_core
    printf5.o(i.__0sprintf$5) refers to printf5.o(i._sputc) for _sputc
    printf5.o(i.__0vfprintf$5) refers to printf5.o(i._printf_core) for _printf_core
    printf5.o(i.__0vfprintf$5) refers to stm32f4xx_uartstdio.o(.text) for fputc
    printf5.o(i.__0vprintf$5) refers to printf5.o(i._printf_core) for _printf_core
    printf5.o(i.__0vprintf$5) refers to stm32f4xx_uartstdio.o(.text) for fputc
    printf5.o(i.__0vprintf$5) refers to stm32f4xx_uartstdio.o(.data) for __stdout
    printf5.o(i.__0vsnprintf$5) refers to printf5.o(i._printf_core) for _printf_core
    printf5.o(i.__0vsnprintf$5) refers to printf5.o(i._snputc) for _snputc
    printf5.o(i.__0vsprintf$5) refers to printf5.o(i._printf_core) for _printf_core
    printf5.o(i.__0vsprintf$5) refers to printf5.o(i._sputc) for _sputc
    printf5.o(i._printf_core) refers to uldiv.o(.text) for __aeabi_uldivmod
    printf6.o(i.__0fprintf$6) refers to printf6.o(i._printf_core) for _printf_core
    printf6.o(i.__0fprintf$6) refers to stm32f4xx_uartstdio.o(.text) for fputc
    printf6.o(i.__0printf$6) refers to printf6.o(i._printf_core) for _printf_core
    printf6.o(i.__0printf$6) refers to stm32f4xx_uartstdio.o(.text) for fputc
    printf6.o(i.__0printf$6) refers to stm32f4xx_uartstdio.o(.data) for __stdout
    printf6.o(i.__0snprintf$6) refers to printf6.o(i._printf_core) for _printf_core
    printf6.o(i.__0snprintf$6) refers to printf6.o(i._snputc) for _snputc
    printf6.o(i.__0sprintf$6) refers to printf6.o(i._printf_core) for _printf_core
    printf6.o(i.__0sprintf$6) refers to printf6.o(i._sputc) for _sputc
    printf6.o(i.__0vfprintf$6) refers to printf6.o(i._printf_core) for _printf_core
    printf6.o(i.__0vfprintf$6) refers to stm32f4xx_uartstdio.o(.text) for fputc
    printf6.o(i.__0vprintf$6) refers to printf6.o(i._printf_core) for _printf_core
    printf6.o(i.__0vprintf$6) refers to stm32f4xx_uartstdio.o(.text) for fputc
    printf6.o(i.__0vprintf$6) refers to stm32f4xx_uartstdio.o(.data) for __stdout
    printf6.o(i.__0vsnprintf$6) refers to printf6.o(i._printf_core) for _printf_core
    printf6.o(i.__0vsnprintf$6) refers to printf6.o(i._snputc) for _snputc
    printf6.o(i.__0vsprintf$6) refers to printf6.o(i._printf_core) for _printf_core
    printf6.o(i.__0vsprintf$6) refers to printf6.o(i._sputc) for _sputc
    printf6.o(i._printf_core) refers to printf6.o(i._printf_pre_padding) for _printf_pre_padding
    printf6.o(i._printf_core) refers to uidiv.o(.text) for __aeabi_uidivmod
    printf6.o(i._printf_core) refers to printf6.o(i._printf_post_padding) for _printf_post_padding
    printf7.o(i.__0fprintf$7) refers to printf7.o(i._printf_core) for _printf_core
    printf7.o(i.__0fprintf$7) refers to stm32f4xx_uartstdio.o(.text) for fputc
    printf7.o(i.__0printf$7) refers to printf7.o(i._printf_core) for _printf_core
    printf7.o(i.__0printf$7) refers to stm32f4xx_uartstdio.o(.text) for fputc
    printf7.o(i.__0printf$7) refers to stm32f4xx_uartstdio.o(.data) for __stdout
    printf7.o(i.__0snprintf$7) refers to printf7.o(i._printf_core) for _printf_core
    printf7.o(i.__0snprintf$7) refers to printf7.o(i._snputc) for _snputc
    printf7.o(i.__0sprintf$7) refers to printf7.o(i._printf_core) for _printf_core
    printf7.o(i.__0sprintf$7) refers to printf7.o(i._sputc) for _sputc
    printf7.o(i.__0vfprintf$7) refers to printf7.o(i._printf_core) for _printf_core
    printf7.o(i.__0vfprintf$7) refers to stm32f4xx_uartstdio.o(.text) for fputc
    printf7.o(i.__0vprintf$7) refers to printf7.o(i._printf_core) for _printf_core
    printf7.o(i.__0vprintf$7) refers to stm32f4xx_uartstdio.o(.text) for fputc
    printf7.o(i.__0vprintf$7) refers to stm32f4xx_uartstdio.o(.data) for __stdout
    printf7.o(i.__0vsnprintf$7) refers to printf7.o(i._printf_core) for _printf_core
    printf7.o(i.__0vsnprintf$7) refers to printf7.o(i._snputc) for _snputc
    printf7.o(i.__0vsprintf$7) refers to printf7.o(i._printf_core) for _printf_core
    printf7.o(i.__0vsprintf$7) refers to printf7.o(i._sputc) for _sputc
    printf7.o(i._printf_core) refers to printf7.o(i._printf_pre_padding) for _printf_pre_padding
    printf7.o(i._printf_core) refers to uldiv.o(.text) for __aeabi_uldivmod
    printf7.o(i._printf_core) refers to printf7.o(i._printf_post_padding) for _printf_post_padding
    printf8.o(i.__0fprintf$8) refers to printf8.o(i._printf_core) for _printf_core
    printf8.o(i.__0fprintf$8) refers to stm32f4xx_uartstdio.o(.text) for fputc
    printf8.o(i.__0printf$8) refers to printf8.o(i._printf_core) for _printf_core
    printf8.o(i.__0printf$8) refers to stm32f4xx_uartstdio.o(.text) for fputc
    printf8.o(i.__0printf$8) refers to stm32f4xx_uartstdio.o(.data) for __stdout
    printf8.o(i.__0snprintf$8) refers to printf8.o(i._printf_core) for _printf_core
    printf8.o(i.__0snprintf$8) refers to printf8.o(i._snputc) for _snputc
    printf8.o(i.__0sprintf$8) refers to printf8.o(i._printf_core) for _printf_core
    printf8.o(i.__0sprintf$8) refers to printf8.o(i._sputc) for _sputc
    printf8.o(i.__0vfprintf$8) refers to printf8.o(i._printf_core) for _printf_core
    printf8.o(i.__0vfprintf$8) refers to stm32f4xx_uartstdio.o(.text) for fputc
    printf8.o(i.__0vprintf$8) refers to printf8.o(i._printf_core) for _printf_core
    printf8.o(i.__0vprintf$8) refers to stm32f4xx_uartstdio.o(.text) for fputc
    printf8.o(i.__0vprintf$8) refers to stm32f4xx_uartstdio.o(.data) for __stdout
    printf8.o(i.__0vsnprintf$8) refers to printf8.o(i._printf_core) for _printf_core
    printf8.o(i.__0vsnprintf$8) refers to printf8.o(i._snputc) for _snputc
    printf8.o(i.__0vsprintf$8) refers to printf8.o(i._printf_core) for _printf_core
    printf8.o(i.__0vsprintf$8) refers to printf8.o(i._sputc) for _sputc
    printf8.o(i._printf_core) refers to printf8.o(i._printf_pre_padding) for _printf_pre_padding
    printf8.o(i._printf_core) refers to uldiv.o(.text) for __aeabi_uldivmod
    printf8.o(i._printf_core) refers to printf8.o(i._printf_post_padding) for _printf_post_padding
    printfa.o(i.__0fprintf) refers (Special) to iusefp.o(.text) for __I$use$fp
    printfa.o(i.__0fprintf) refers to printfa.o(i._printf_core) for _printf_core
    printfa.o(i.__0fprintf) refers to stm32f4xx_uartstdio.o(.text) for fputc
    printfa.o(i.__0printf) refers (Special) to iusefp.o(.text) for __I$use$fp
    printfa.o(i.__0printf) refers to printfa.o(i._printf_core) for _printf_core
    printfa.o(i.__0printf) refers to stm32f4xx_uartstdio.o(.text) for fputc
    printfa.o(i.__0printf) refers to stm32f4xx_uartstdio.o(.data) for __stdout
    printfa.o(i.__0snprintf) refers (Special) to iusefp.o(.text) for __I$use$fp
    printfa.o(i.__0snprintf) refers to printfa.o(i._printf_core) for _printf_core
    printfa.o(i.__0snprintf) refers to printfa.o(i._snputc) for _snputc
    printfa.o(i.__0sprintf) refers (Special) to iusefp.o(.text) for __I$use$fp
    printfa.o(i.__0sprintf) refers to printfa.o(i._printf_core) for _printf_core
    printfa.o(i.__0sprintf) refers to printfa.o(i._sputc) for _sputc
    printfa.o(i.__0vfprintf) refers (Special) to iusefp.o(.text) for __I$use$fp
    printfa.o(i.__0vfprintf) refers to printfa.o(i._printf_core) for _printf_core
    printfa.o(i.__0vfprintf) refers to stm32f4xx_uartstdio.o(.text) for fputc
    printfa.o(i.__0vprintf) refers (Special) to iusefp.o(.text) for __I$use$fp
    printfa.o(i.__0vprintf) refers to printfa.o(i._printf_core) for _printf_core
    printfa.o(i.__0vprintf) refers to stm32f4xx_uartstdio.o(.text) for fputc
    printfa.o(i.__0vprintf) refers to stm32f4xx_uartstdio.o(.data) for __stdout
    printfa.o(i.__0vsnprintf) refers (Special) to iusefp.o(.text) for __I$use$fp
    printfa.o(i.__0vsnprintf) refers to printfa.o(i._printf_core) for _printf_core
    printfa.o(i.__0vsnprintf) refers to printfa.o(i._snputc) for _snputc
    printfa.o(i.__0vsprintf) refers (Special) to iusefp.o(.text) for __I$use$fp
    printfa.o(i.__0vsprintf) refers to printfa.o(i._printf_core) for _printf_core
    printfa.o(i.__0vsprintf) refers to printfa.o(i._sputc) for _sputc
    printfa.o(i._fp_digits) refers (Special) to iusefp.o(.text) for __I$use$fp
    printfa.o(i._fp_digits) refers to dmul.o(.text) for __aeabi_dmul
    printfa.o(i._fp_digits) refers to ddiv.o(.text) for __aeabi_ddiv
    printfa.o(i._fp_digits) refers to cdrcmple.o(.text) for __aeabi_cdrcmple
    printfa.o(i._fp_digits) refers to dadd.o(.text) for __aeabi_dadd
    printfa.o(i._fp_digits) refers to dfixul.o(.text) for __aeabi_d2ulz
    printfa.o(i._fp_digits) refers to uldiv.o(.text) for __aeabi_uldivmod
    printfa.o(i._printf_core) refers (Special) to iusefp.o(.text) for __I$use$fp
    printfa.o(i._printf_core) refers to printfa.o(i._printf_pre_padding) for _printf_pre_padding
    printfa.o(i._printf_core) refers to uldiv.o(.text) for __aeabi_uldivmod
    printfa.o(i._printf_core) refers to printfa.o(i._printf_post_padding) for _printf_post_padding
    printfa.o(i._printf_core) refers to printfa.o(i._fp_digits) for _fp_digits
    printfa.o(i._printf_core) refers to uidiv.o(.text) for __aeabi_uidivmod
    printfa.o(i._printf_post_padding) refers (Special) to iusefp.o(.text) for __I$use$fp
    printfa.o(i._printf_pre_padding) refers (Special) to iusefp.o(.text) for __I$use$fp
    printfa.o(i._snputc) refers (Special) to iusefp.o(.text) for __I$use$fp
    printfa.o(i._sputc) refers (Special) to iusefp.o(.text) for __I$use$fp
    atoi.o(.text) refers to errno.o(i.__aeabi_errno_addr) for __aeabi_errno_addr
    atoi.o(.text) refers to strtol.o(.text) for strtol
    dflti.o(.text) refers (Special) to iusefp.o(.text) for __I$use$fp
    dflti.o(.text) refers to depilogue.o(.text) for _double_epilogue
    dfltui.o(.text) refers (Special) to iusefp.o(.text) for __I$use$fp
    dfltui.o(.text) refers to depilogue.o(.text) for _double_epilogue
    cdcmple.o(.text) refers (Special) to iusefp.o(.text) for __I$use$fp
    cdrcmple.o(.text) refers (Special) to iusefp.o(.text) for __I$use$fp
    entry2.o(.ARM.Collect$$$$00000001) refers to entry2.o(.ARM.Collect$$$$00002712) for __lit__00000000
    entry2.o(.ARM.Collect$$$$00002712) refers to startup_stm32f4xx.o(STACK) for __initial_sp
    entry2.o(__vectab_stack_and_reset_area) refers to startup_stm32f4xx.o(STACK) for __initial_sp
    entry2.o(__vectab_stack_and_reset_area) refers to entry.o(.ARM.Collect$$$$00000000) for __main
    entry5.o(.ARM.Collect$$$$00000004) refers to init.o(.text) for __scatterload
    entry9a.o(.ARM.Collect$$$$0000000B) refers to main.o(.text) for main
    entry9b.o(.ARM.Collect$$$$0000000C) refers to main.o(.text) for main
    uldiv.o(.text) refers to llushr.o(.text) for __aeabi_llsr
    uldiv.o(.text) refers to llshl.o(.text) for __aeabi_llsl
    errno.o(i.__aeabi_errno_addr) refers to errno.o(.data) for .data
    errno.o(i.__read_errno) refers to errno.o(.data) for .data
    errno.o(i.__set_errno) refers to errno.o(.data) for .data
    strtol.o(.text) refers to ctype_o.o(.text) for __rt_ctype_table
    strtol.o(.text) refers to _strtoul.o(.text) for _strtoul
    strtol.o(.text) refers to errno.o(i.__aeabi_errno_addr) for __aeabi_errno_addr
    depilogue.o(.text) refers to llshl.o(.text) for __aeabi_llsl
    depilogue.o(.text) refers to llushr.o(.text) for __aeabi_llsr
    dadd.o(.text) refers to llshl.o(.text) for __aeabi_llsl
    dadd.o(.text) refers to llsshr.o(.text) for __aeabi_lasr
    dadd.o(.text) refers to depilogue.o(.text) for _double_epilogue
    dmul.o(.text) refers to depilogue.o(.text) for _double_epilogue
    ddiv.o(.text) refers to depilogue.o(.text) for _double_round
    dfixul.o(.text) refers to llushr.o(.text) for __aeabi_llsr
    dfixul.o(.text) refers to llshl.o(.text) for __aeabi_llsl
    init.o(.text) refers to entry5.o(.ARM.Collect$$$$00000004) for __main_after_scatterload
    ctype_o.o(.text) refers to ctype_o.o(.constdata) for .constdata
    ctype_o.o(.constdata) refers to ctype_o.o(.constdata) for __ctype_table
    isalnum_o.o(.text) refers to ctype_o.o(.text) for __rt_ctype_table
    isalpha_o.o(.text) refers to ctype_o.o(.text) for __rt_ctype_table
    isblank_o.o(.text) refers to ctype_o.o(.constdata) for __ctype_table
    iscntrl_o.o(.text) refers to ctype_o.o(.text) for __rt_ctype_table
    isdigit_o.o(.text) refers to ctype_o.o(.text) for __rt_ctype_table
    isgraph_o.o(.text) refers to ctype_o.o(.text) for __rt_ctype_table
    islower_o.o(.text) refers to ctype_o.o(.text) for __rt_ctype_table
    isprint_o.o(.text) refers to ctype_o.o(.text) for __rt_ctype_table
    ispunct_o.o(.text) refers to ctype_o.o(.text) for __rt_ctype_table
    isspace_o.o(.text) refers to ctype_o.o(.text) for __rt_ctype_table
    isupper_o.o(.text) refers to ctype_o.o(.text) for __rt_ctype_table
    isxdigit_o.o(.text) refers to ctype_o.o(.text) for __rt_ctype_table
    _strtoul.o(.text) refers to _chval.o(.text) for _chval
    _strtoul.o(.text) refers to errno.o(i.__aeabi_errno_addr) for __aeabi_errno_addr


==============================================================================

Removing Unused input sections from the image.

    Removing main.o(.emb_text), (8 bytes).
    Removing main.o(.constdata), (7 bytes).
    Removing system_stm32f4xx.o(.emb_text), (8 bytes).
    Removing stm32f4xx_it.o(.emb_text), (8 bytes).
    Removing stm32f4x7_eth_bsp.o(.emb_text), (8 bytes).
    Removing httpserver-socket.o(.emb_text), (8 bytes).
    Removing httpserver-socket.o(.bss), (512 bytes).
    Removing httpserver-socket.o(.data), (4 bytes).
    Removing hw_config.o(.emb_text), (8 bytes).
    Removing hw_config.o(.text), (368 bytes).
    Removing hw_config.o(.data), (1 bytes).
    Removing api_server.o(.emb_text), (8 bytes).
    Removing key_scan.o(.emb_text), (8 bytes).
    Removing keyscan_task.o(.emb_text), (8 bytes).
    Removing rs485bus_task_m.o(.emb_text), (8 bytes).
    Removing rs485bus_task.o(.emb_text), (8 bytes).
    Removing tcpmbbus_task.o(.emb_text), (8 bytes).
    Removing mqttconnectserver.o(.text), (400 bytes).
    Removing mqttformat.o(.text), (648 bytes).
    Removing mqttformat.o(.conststring), (383 bytes).
    Removing mqttformat.o(.data), (60 bytes).
    Removing mqttsubscribeserver.o(.text), (236 bytes).
    Removing mqttunsubscribeserver.o(.text), (188 bytes).
    Removing rs485utils.o(.emb_text), (8 bytes).
    Removing rs485utils.o(.text), (100 bytes).
    Removing rs485bus_m.o(.data), (4 bytes).
    Removing rs485bus_m.o(.data), (4 bytes).
    Removing rs485rtu_m.o(.emb_text), (8 bytes).
    Removing portother _m.o(.emb_text), (8 bytes).
    Removing portserial_m.o(.emb_text), (8 bytes).
    Removing porttimer_m.o(.emb_text), (8 bytes).
    Removing user_rs485_app_m.o(.bss), (1280 bytes).
    Removing user_rs485_app_m.o(.data), (2 bytes).
    Removing user_rs485_app.o(.text), (352 bytes).
    Removing portother.o(.emb_text), (8 bytes).
    Removing portserial.o(.emb_text), (8 bytes).
    Removing porttimer.o(.emb_text), (8 bytes).
    Removing rs485rtu.o(.emb_text), (8 bytes).
    Removing portevent.o(.text), (132 bytes).
    Removing portevent.o(.data), (4 bytes).
    Removing err.o(.text), (16 bytes).
    Removing err.o(.conststring), (271 bytes).
    Removing err.o(.data), (60 bytes).
    Removing memp.o(.conststring), (134 bytes).
    Removing memp.o(.data), (48 bytes).
    Removing ethernetif.o(.emb_text), (8 bytes).
    Removing stm32f4xx_uartstdio.o(.emb_text), (8 bytes).
    Removing stm32f4_discovery_lcd.o(.emb_text), (8 bytes).
    Removing stm32f4_discovery_lcd.o(.text), (3686 bytes).
    Removing stm32f4_discovery_lcd.o(.constdata), (4560 bytes).
    Removing stm32f4_discovery_lcd.o(.constdata), (2304 bytes).
    Removing stm32f4_discovery_lcd.o(.constdata), (2304 bytes).
    Removing stm32f4_discovery_lcd.o(.constdata), (1536 bytes).
    Removing stm32f4_discovery_lcd.o(.data), (16 bytes).
    Removing stm32f4_discovery_lcd.o(.data), (8 bytes).
    Removing stm32f4_discovery_lcd.o(.data), (8 bytes).
    Removing stm32f4_discovery_lcd.o(.data), (8 bytes).
    Removing stm32f4_discovery.o(.emb_text), (8 bytes).
    Removing stm32f4_discovery.o(.data), (4 bytes).
    Removing tm_stm32f4_i2c.o(.emb_text), (8 bytes).
    Removing tm_stm32f4_i2c.o(.text), (1056 bytes).
    Removing tm_stm32f4_i2c.o(.data), (16 bytes).
    Removing stm32f4x7_eth.o(.emb_text), (8 bytes).
    Removing stm32f4x7_eth.o(.data), (4 bytes).
    Removing stm32f4xx_usart.o(.emb_text), (8 bytes).
    Removing misc.o(.emb_text), (8 bytes).
    Removing stm32f4xx_adc.o(.emb_text), (8 bytes).
    Removing stm32f4xx_dma.o(.emb_text), (8 bytes).
    Removing stm32f4xx_exti.o(.emb_text), (8 bytes).
    Removing stm32f4xx_fsmc.o(.emb_text), (8 bytes).
    Removing stm32f4xx_fsmc.o(.text), (1148 bytes).
    Removing stm32f4xx_gpio.o(.emb_text), (8 bytes).
    Removing stm32f4xx_rcc.o(.emb_text), (8 bytes).
    Removing stm32f4xx_syscfg.o(.emb_text), (8 bytes).
    Removing stm32f4xx_sdio.o(.emb_text), (8 bytes).
    Removing stm32f4xx_tim.o(.emb_text), (8 bytes).
    Removing stm32f4xx_spi.o(.emb_text), (8 bytes).
    Removing stm32f4xx_spi.o(.text), (752 bytes).
    Removing stm32f4xx_flash.o(.emb_text), (8 bytes).
    Removing stm32f4xx_i2c.o(.emb_text), (8 bytes).
    Removing stm32f4xx_i2c.o(.text), (828 bytes).
    Removing stm32f4xx_rtc.o(.emb_text), (8 bytes).
    Removing stm32f4xx_pwr.o(.emb_text), (8 bytes).
    Removing event_groups.o(.text), (776 bytes).
    Removing stream_buffer.o(.text), (1744 bytes).
    Removing startup_stm32f4xx.o(HEAP), (512 bytes).
    Removing tcp_mb.o(.data), (4 bytes).
    Removing tcp_mb.o(.data), (4 bytes).
    Removing tcp_mb.o(.data), (4 bytes).
    Removing tcp_mb.o(.data), (4 bytes).
    Removing tcp_mb.o(.data), (4 bytes).
    Removing mbfunccoils.o(.text), (204 bytes).
    Removing mbfuncdisc.o(.text), (96 bytes).
    Removing mbfuncholding.o(.text), (242 bytes).
    Removing mbfuncinput.o(.text), (76 bytes).
    Removing dflti.o(.text), (34 bytes).
    Removing dfltui.o(.text), (26 bytes).
    Removing cdcmple.o(.text), (48 bytes).

98 unused section(s) (total 27574 bytes) removed from the image.

==============================================================================

Image Symbol Table

    Local Symbols

    Symbol Name                              Value     Ov Type        Size  Object(Section)

    ../clib/../cmprslib/zerorunl2.c          0x00000000   Number         0  __dczerorl2.o ABSOLUTE
    ../clib/microlib/ctype/ctype.c           0x00000000   Number         0  isupper_o.o ABSOLUTE
    ../clib/microlib/ctype/ctype.c           0x00000000   Number         0  ispunct_o.o ABSOLUTE
    ../clib/microlib/ctype/ctype.c           0x00000000   Number         0  isspace_o.o ABSOLUTE
    ../clib/microlib/ctype/ctype.c           0x00000000   Number         0  isprint_o.o ABSOLUTE
    ../clib/microlib/ctype/ctype.c           0x00000000   Number         0  islower_o.o ABSOLUTE
    ../clib/microlib/ctype/ctype.c           0x00000000   Number         0  isgraph_o.o ABSOLUTE
    ../clib/microlib/ctype/ctype.c           0x00000000   Number         0  isdigit_o.o ABSOLUTE
    ../clib/microlib/ctype/ctype.c           0x00000000   Number         0  iscntrl_o.o ABSOLUTE
    ../clib/microlib/ctype/ctype.c           0x00000000   Number         0  isblank_o.o ABSOLUTE
    ../clib/microlib/ctype/ctype.c           0x00000000   Number         0  isalpha_o.o ABSOLUTE
    ../clib/microlib/ctype/ctype.c           0x00000000   Number         0  isalnum_o.o ABSOLUTE
    ../clib/microlib/ctype/ctype.c           0x00000000   Number         0  ctype_o.o ABSOLUTE
    ../clib/microlib/ctype/ctype.c           0x00000000   Number         0  isxdigit_o.o ABSOLUTE
    ../clib/microlib/division.c              0x00000000   Number         0  uidiv.o ABSOLUTE
    ../clib/microlib/division.c              0x00000000   Number         0  uldiv.o ABSOLUTE
    ../clib/microlib/errno.c                 0x00000000   Number         0  errno.o ABSOLUTE
    ../clib/microlib/init/entry.s            0x00000000   Number         0  entry9b.o ABSOLUTE
    ../clib/microlib/init/entry.s            0x00000000   Number         0  entry8b.o ABSOLUTE
    ../clib/microlib/init/entry.s            0x00000000   Number         0  entry9a.o ABSOLUTE
    ../clib/microlib/init/entry.s            0x00000000   Number         0  entry.o ABSOLUTE
    ../clib/microlib/init/entry.s            0x00000000   Number         0  entry2.o ABSOLUTE
    ../clib/microlib/init/entry.s            0x00000000   Number         0  entry10a.o ABSOLUTE
    ../clib/microlib/init/entry.s            0x00000000   Number         0  entry10b.o ABSOLUTE
    ../clib/microlib/init/entry.s            0x00000000   Number         0  entry11a.o ABSOLUTE
    ../clib/microlib/init/entry.s            0x00000000   Number         0  entry11b.o ABSOLUTE
    ../clib/microlib/init/entry.s            0x00000000   Number         0  entry5.o ABSOLUTE
    ../clib/microlib/init/entry.s            0x00000000   Number         0  entry8a.o ABSOLUTE
    ../clib/microlib/init/entry.s            0x00000000   Number         0  entry7b.o ABSOLUTE
    ../clib/microlib/init/entry.s            0x00000000   Number         0  entry7a.o ABSOLUTE
    ../clib/microlib/longlong.c              0x00000000   Number         0  llshl.o ABSOLUTE
    ../clib/microlib/longlong.c              0x00000000   Number         0  llsshr.o ABSOLUTE
    ../clib/microlib/longlong.c              0x00000000   Number         0  llushr.o ABSOLUTE
    ../clib/microlib/printf/printf.c         0x00000000   Number         0  printf7.o ABSOLUTE
    ../clib/microlib/printf/printf.c         0x00000000   Number         0  printf8.o ABSOLUTE
    ../clib/microlib/printf/printf.c         0x00000000   Number         0  printfa.o ABSOLUTE
    ../clib/microlib/printf/printf.c         0x00000000   Number         0  printf4.o ABSOLUTE
    ../clib/microlib/printf/printf.c         0x00000000   Number         0  printf3.o ABSOLUTE
    ../clib/microlib/printf/printf.c         0x00000000   Number         0  printf2.o ABSOLUTE
    ../clib/microlib/printf/printf.c         0x00000000   Number         0  printf1.o ABSOLUTE
    ../clib/microlib/printf/printf.c         0x00000000   Number         0  printf0.o ABSOLUTE
    ../clib/microlib/printf/printf.c         0x00000000   Number         0  printfb.o ABSOLUTE
    ../clib/microlib/printf/printf.c         0x00000000   Number         0  printf5.o ABSOLUTE
    ../clib/microlib/printf/printf.c         0x00000000   Number         0  printf6.o ABSOLUTE
    ../clib/microlib/printf/stubs.s          0x00000000   Number         0  stubs.o ABSOLUTE
    ../clib/microlib/stdlib/abort.c          0x00000000   Number         0  abort.o ABSOLUTE
    ../clib/microlib/string/memcmp.c         0x00000000   Number         0  memcmp.o ABSOLUTE
    ../clib/microlib/string/memcpy.c         0x00000000   Number         0  memcpyb.o ABSOLUTE
    ../clib/microlib/string/memcpy.c         0x00000000   Number         0  memcpya.o ABSOLUTE
    ../clib/microlib/string/memset.c         0x00000000   Number         0  memset.o ABSOLUTE
    ../clib/microlib/string/memset.c         0x00000000   Number         0  memseta.o ABSOLUTE
    ../clib/microlib/string/strcat.c         0x00000000   Number         0  strcat.o ABSOLUTE
    ../clib/microlib/string/strcmp.c         0x00000000   Number         0  strcmp.o ABSOLUTE
    ../clib/microlib/string/strcpy.c         0x00000000   Number         0  strcpy.o ABSOLUTE
    ../clib/microlib/string/strlen.c         0x00000000   Number         0  strlen.o ABSOLUTE
    ../clib/microlib/string/strncat.c        0x00000000   Number         0  strncat.o ABSOLUTE
    ../clib/microlib/string/strncmp.c        0x00000000   Number         0  strncmp.o ABSOLUTE
    ../clib/microlib/string/strpbrk.c        0x00000000   Number         0  strpbrk.o ABSOLUTE
    ../clib/microlib/string/strstr.c         0x00000000   Number         0  strstr.o ABSOLUTE
    ../clib/microlib/stubs.s                 0x00000000   Number         0  iusefp.o ABSOLUTE
    ../clib/scanf.c                          0x00000000   Number         0  atoi.o ABSOLUTE
    ../clib/scanf.c                          0x00000000   Number         0  strtol.o ABSOLUTE
    ../clib/scanf.c                          0x00000000   Number         0  _strtoul.o ABSOLUTE
    ../clib/scanf.c                          0x00000000   Number         0  _chval.o ABSOLUTE
    ../fplib/microlib/fpadd.c                0x00000000   Number         0  dadd.o ABSOLUTE
    ../fplib/microlib/fpdiv.c                0x00000000   Number         0  ddiv.o ABSOLUTE
    ../fplib/microlib/fpepilogue.c           0x00000000   Number         0  depilogue.o ABSOLUTE
    ../fplib/microlib/fpfix.c                0x00000000   Number         0  dfixul.o ABSOLUTE
    ../fplib/microlib/fpflt.c                0x00000000   Number         0  dfltui.o ABSOLUTE
    ../fplib/microlib/fpflt.c                0x00000000   Number         0  dflti.o ABSOLUTE
    ../fplib/microlib/fpmul.c                0x00000000   Number         0  dmul.o ABSOLUTE
    ..\..\Libraries\STM32F4x7_ETH_Driver\src\stm32f4x7_eth.c 0x00000000   Number         0  stm32f4x7_eth.o ABSOLUTE
    ..\..\Libraries\STM32F4xx_StdPeriph_Driver\src\misc.c 0x00000000   Number         0  misc.o ABSOLUTE
    ..\..\Libraries\STM32F4xx_StdPeriph_Driver\src\stm32f4xx_adc.c 0x00000000   Number         0  stm32f4xx_adc.o ABSOLUTE
    ..\..\Libraries\STM32F4xx_StdPeriph_Driver\src\stm32f4xx_dma.c 0x00000000   Number         0  stm32f4xx_dma.o ABSOLUTE
    ..\..\Libraries\STM32F4xx_StdPeriph_Driver\src\stm32f4xx_exti.c 0x00000000   Number         0  stm32f4xx_exti.o ABSOLUTE
    ..\..\Libraries\STM32F4xx_StdPeriph_Driver\src\stm32f4xx_flash.c 0x00000000   Number         0  stm32f4xx_flash.o ABSOLUTE
    ..\..\Libraries\STM32F4xx_StdPeriph_Driver\src\stm32f4xx_fsmc.c 0x00000000   Number         0  stm32f4xx_fsmc.o ABSOLUTE
    ..\..\Libraries\STM32F4xx_StdPeriph_Driver\src\stm32f4xx_gpio.c 0x00000000   Number         0  stm32f4xx_gpio.o ABSOLUTE
    ..\..\Libraries\STM32F4xx_StdPeriph_Driver\src\stm32f4xx_i2c.c 0x00000000   Number         0  stm32f4xx_i2c.o ABSOLUTE
    ..\..\Libraries\STM32F4xx_StdPeriph_Driver\src\stm32f4xx_pwr.c 0x00000000   Number         0  stm32f4xx_pwr.o ABSOLUTE
    ..\..\Libraries\STM32F4xx_StdPeriph_Driver\src\stm32f4xx_rcc.c 0x00000000   Number         0  stm32f4xx_rcc.o ABSOLUTE
    ..\..\Libraries\STM32F4xx_StdPeriph_Driver\src\stm32f4xx_rtc.c 0x00000000   Number         0  stm32f4xx_rtc.o ABSOLUTE
    ..\..\Libraries\STM32F4xx_StdPeriph_Driver\src\stm32f4xx_sdio.c 0x00000000   Number         0  stm32f4xx_sdio.o ABSOLUTE
    ..\..\Libraries\STM32F4xx_StdPeriph_Driver\src\stm32f4xx_spi.c 0x00000000   Number         0  stm32f4xx_spi.o ABSOLUTE
    ..\..\Libraries\STM32F4xx_StdPeriph_Driver\src\stm32f4xx_syscfg.c 0x00000000   Number         0  stm32f4xx_syscfg.o ABSOLUTE
    ..\..\Libraries\STM32F4xx_StdPeriph_Driver\src\stm32f4xx_tim.c 0x00000000   Number         0  stm32f4xx_tim.o ABSOLUTE
    ..\..\Libraries\STM32F4xx_StdPeriph_Driver\src\stm32f4xx_usart.c 0x00000000   Number         0  stm32f4xx_usart.o ABSOLUTE
    ..\..\Utilities\FreeRTOSv10.0.1\croutine.c 0x00000000   Number         0  croutine.o ABSOLUTE
    ..\..\Utilities\FreeRTOSv10.0.1\event_groups.c 0x00000000   Number         0  event_groups.o ABSOLUTE
    ..\..\Utilities\FreeRTOSv10.0.1\list.c   0x00000000   Number         0  list.o ABSOLUTE
    ..\..\Utilities\FreeRTOSv10.0.1\portable\MemMang\heap_2.c 0x00000000   Number         0  heap_2.o ABSOLUTE
    ..\..\Utilities\FreeRTOSv10.0.1\portable\RVDS\ARM_CM4F\port.c 0x00000000   Number         0  port.o ABSOLUTE
    ..\..\Utilities\FreeRTOSv10.0.1\queue.c  0x00000000   Number         0  queue.o ABSOLUTE
    ..\..\Utilities\FreeRTOSv10.0.1\stream_buffer.c 0x00000000   Number         0  stream_buffer.o ABSOLUTE
    ..\..\Utilities\FreeRTOSv10.0.1\tasks.c  0x00000000   Number         0  tasks.o ABSOLUTE
    ..\..\Utilities\FreeRTOSv10.0.1\timers.c 0x00000000   Number         0  timers.o ABSOLUTE
    ..\..\Utilities\MQTTClient\MQTTClient-C\src\FreeRTOS\MQTTFreeRTOS.c 0x00000000   Number         0  mqttfreertos.o ABSOLUTE
    ..\..\Utilities\MQTTClient\MQTTClient-C\src\MQTTClient.c 0x00000000   Number         0  mqttclient.o ABSOLUTE
    ..\..\Utilities\MQTTClient\MQTTPacket\src\MQTTConnectClient.c 0x00000000   Number         0  mqttconnectclient.o ABSOLUTE
    ..\..\Utilities\MQTTClient\MQTTPacket\src\MQTTConnectServer.c 0x00000000   Number         0  mqttconnectserver.o ABSOLUTE
    ..\..\Utilities\MQTTClient\MQTTPacket\src\MQTTDeserializePublish.c 0x00000000   Number         0  mqttdeserializepublish.o ABSOLUTE
    ..\..\Utilities\MQTTClient\MQTTPacket\src\MQTTFormat.c 0x00000000   Number         0  mqttformat.o ABSOLUTE
    ..\..\Utilities\MQTTClient\MQTTPacket\src\MQTTPacket.c 0x00000000   Number         0  mqttpacket.o ABSOLUTE
    ..\..\Utilities\MQTTClient\MQTTPacket\src\MQTTSerializePublish.c 0x00000000   Number         0  mqttserializepublish.o ABSOLUTE
    ..\..\Utilities\MQTTClient\MQTTPacket\src\MQTTSubscribeClient.c 0x00000000   Number         0  mqttsubscribeclient.o ABSOLUTE
    ..\..\Utilities\MQTTClient\MQTTPacket\src\MQTTSubscribeServer.c 0x00000000   Number         0  mqttsubscribeserver.o ABSOLUTE
    ..\..\Utilities\MQTTClient\MQTTPacket\src\MQTTUnsubscribeClient.c 0x00000000   Number         0  mqttunsubscribeclient.o ABSOLUTE
    ..\..\Utilities\MQTTClient\MQTTPacket\src\MQTTUnsubscribeServer.c 0x00000000   Number         0  mqttunsubscribeserver.o ABSOLUTE
    ..\..\Utilities\RS485_BUS\Interface\RS485Bus.c 0x00000000   Number         0  rs485bus.o ABSOLUTE
    ..\..\Utilities\RS485_BUS\Interface\RS485Bus_m.c 0x00000000   Number         0  rs485bus_m.o ABSOLUTE
    ..\..\Utilities\RS485_BUS\Interface\functions\mbfuncholding_m.c 0x00000000   Number         0  mbfuncholding_m.o ABSOLUTE
    ..\..\Utilities\RS485_BUS\Interface\functions\rs485funcErrodetect_m.c 0x00000000   Number         0  rs485funcerrodetect_m.o ABSOLUTE
    ..\..\Utilities\RS485_BUS\Interface\functions\rs485funcNFCdetect_m.c 0x00000000   Number         0  rs485funcnfcdetect_m.o ABSOLUTE
    ..\..\Utilities\RS485_BUS\Interface\functions\rs485funcPeriodicPing.c 0x00000000   Number         0  rs485funcperiodicping.o ABSOLUTE
    ..\..\Utilities\RS485_BUS\Interface\functions\rs485funcPeriodicPing_m.c 0x00000000   Number         0  rs485funcperiodicping_m.o ABSOLUTE
    ..\..\Utilities\RS485_BUS\Interface\functions\rs485funccheck_m.c 0x00000000   Number         0  rs485funccheck_m.o ABSOLUTE
    ..\..\Utilities\RS485_BUS\Interface\functions\rs485utils.c 0x00000000   Number         0  rs485utils.o ABSOLUTE
    ..\..\Utilities\RS485_BUS\Interface\rtu\rs485crc.c 0x00000000   Number         0  rs485crc.o ABSOLUTE
    ..\..\Utilities\RS485_BUS\Interface\rtu\rs485rtu.c 0x00000000   Number         0  rs485rtu.o ABSOLUTE
    ..\..\Utilities\RS485_BUS\Interface\rtu\rs485rtu_m.c 0x00000000   Number         0  rs485rtu_m.o ABSOLUTE
    ..\..\Utilities\RS485_BUS\port\rtos\portevent.c 0x00000000   Number         0  portevent.o ABSOLUTE
    ..\..\Utilities\RS485_BUS\port\rtos\portevent_m.c 0x00000000   Number         0  portevent_m.o ABSOLUTE
    ..\..\Utilities\RS485_BUS\port\rtos\portother _m.c 0x00000000   Number         0  portother _m.o ABSOLUTE
    ..\..\Utilities\RS485_BUS\port\rtos\portother.c 0x00000000   Number         0  portother.o ABSOLUTE
    ..\..\Utilities\RS485_BUS\port\rtos\portserial.c 0x00000000   Number         0  portserial.o ABSOLUTE
    ..\..\Utilities\RS485_BUS\port\rtos\portserial_m.c 0x00000000   Number         0  portserial_m.o ABSOLUTE
    ..\..\Utilities\RS485_BUS\port\rtos\porttimer.c 0x00000000   Number         0  porttimer.o ABSOLUTE
    ..\..\Utilities\RS485_BUS\port\rtos\porttimer_m.c 0x00000000   Number         0  porttimer_m.o ABSOLUTE
    ..\..\Utilities\RS485_BUS\port\user_rs485_app.c 0x00000000   Number         0  user_rs485_app.o ABSOLUTE
    ..\..\Utilities\RS485_BUS\port\user_rs485_app_m.c 0x00000000   Number         0  user_rs485_app_m.o ABSOLUTE
    ..\..\Utilities\STM32F4-Discovery\stm32f4_discovery.c 0x00000000   Number         0  stm32f4_discovery.o ABSOLUTE
    ..\..\Utilities\STM32F4-Discovery\stm32f4_discovery_lcd.c 0x00000000   Number         0  stm32f4_discovery_lcd.o ABSOLUTE
    ..\..\Utilities\TCP_BUS\Interface\function\mbfunccoils.c 0x00000000   Number         0  mbfunccoils.o ABSOLUTE
    ..\..\Utilities\TCP_BUS\Interface\function\mbfuncdiag.c 0x00000000   Number         0  mbfuncdiag.o ABSOLUTE
    ..\..\Utilities\TCP_BUS\Interface\function\mbfuncdisc.c 0x00000000   Number         0  mbfuncdisc.o ABSOLUTE
    ..\..\Utilities\TCP_BUS\Interface\function\mbfuncholding.c 0x00000000   Number         0  mbfuncholding.o ABSOLUTE
    ..\..\Utilities\TCP_BUS\Interface\function\mbfuncinput.c 0x00000000   Number         0  mbfuncinput.o ABSOLUTE
    ..\..\Utilities\TCP_BUS\Interface\function\mbfuncother.c 0x00000000   Number         0  mbfuncother.o ABSOLUTE
    ..\..\Utilities\TCP_BUS\Interface\function\mbutils.c 0x00000000   Number         0  mbutils.o ABSOLUTE
    ..\..\Utilities\TCP_BUS\Interface\tcp\mbtcp.c 0x00000000   Number         0  mbtcp.o ABSOLUTE
    ..\..\Utilities\TCP_BUS\Interface\tcp_mb.c 0x00000000   Number         0  tcp_mb.o ABSOLUTE
    ..\..\Utilities\TCP_BUS\port\port_tcp.c  0x00000000   Number         0  port_tcp.o ABSOLUTE
    ..\..\Utilities\TCP_BUS\port\portevent_tcp.c 0x00000000   Number         0  portevent_tcp.o ABSOLUTE
    ..\..\Utilities\TCP_BUS\port\portother_tcp.c 0x00000000   Number         0  portother_tcp.o ABSOLUTE
    ..\..\Utilities\lwip_v1.3.2\port\STM32F4x7\FreeRTOS\ethernetif.c 0x00000000   Number         0  ethernetif.o ABSOLUTE
    ..\..\Utilities\lwip_v1.3.2\port\STM32F4x7\FreeRTOS\sys_arch.c 0x00000000   Number         0  sys_arch.o ABSOLUTE
    ..\..\Utilities\lwip_v1.3.2\src\api\api_lib.c 0x00000000   Number         0  api_lib.o ABSOLUTE
    ..\..\Utilities\lwip_v1.3.2\src\api\api_msg.c 0x00000000   Number         0  api_msg.o ABSOLUTE
    ..\..\Utilities\lwip_v1.3.2\src\api\err.c 0x00000000   Number         0  err.o ABSOLUTE
    ..\..\Utilities\lwip_v1.3.2\src\api\netbuf.c 0x00000000   Number         0  netbuf.o ABSOLUTE
    ..\..\Utilities\lwip_v1.3.2\src\api\netdb.c 0x00000000   Number         0  netdb.o ABSOLUTE
    ..\..\Utilities\lwip_v1.3.2\src\api\netifapi.c 0x00000000   Number         0  netifapi.o ABSOLUTE
    ..\..\Utilities\lwip_v1.3.2\src\api\sockets.c 0x00000000   Number         0  sockets.o ABSOLUTE
    ..\..\Utilities\lwip_v1.3.2\src\api\tcpip.c 0x00000000   Number         0  tcpip.o ABSOLUTE
    ..\..\Utilities\lwip_v1.3.2\src\core\dhcp.c 0x00000000   Number         0  dhcp.o ABSOLUTE
    ..\..\Utilities\lwip_v1.3.2\src\core\dns.c 0x00000000   Number         0  dns.o ABSOLUTE
    ..\..\Utilities\lwip_v1.3.2\src\core\init.c 0x00000000   Number         0  init.o ABSOLUTE
    ..\..\Utilities\lwip_v1.3.2\src\core\ipv4\autoip.c 0x00000000   Number         0  autoip.o ABSOLUTE
    ..\..\Utilities\lwip_v1.3.2\src\core\ipv4\icmp.c 0x00000000   Number         0  icmp.o ABSOLUTE
    ..\..\Utilities\lwip_v1.3.2\src\core\ipv4\igmp.c 0x00000000   Number         0  igmp.o ABSOLUTE
    ..\..\Utilities\lwip_v1.3.2\src\core\ipv4\inet.c 0x00000000   Number         0  inet.o ABSOLUTE
    ..\..\Utilities\lwip_v1.3.2\src\core\ipv4\inet_chksum.c 0x00000000   Number         0  inet_chksum.o ABSOLUTE
    ..\..\Utilities\lwip_v1.3.2\src\core\ipv4\ip.c 0x00000000   Number         0  ip.o ABSOLUTE
    ..\..\Utilities\lwip_v1.3.2\src\core\ipv4\ip_addr.c 0x00000000   Number         0  ip_addr.o ABSOLUTE
    ..\..\Utilities\lwip_v1.3.2\src\core\ipv4\ip_frag.c 0x00000000   Number         0  ip_frag.o ABSOLUTE
    ..\..\Utilities\lwip_v1.3.2\src\core\mem.c 0x00000000   Number         0  mem.o ABSOLUTE
    ..\..\Utilities\lwip_v1.3.2\src\core\memp.c 0x00000000   Number         0  memp.o ABSOLUTE
    ..\..\Utilities\lwip_v1.3.2\src\core\netif.c 0x00000000   Number         0  netif.o ABSOLUTE
    ..\..\Utilities\lwip_v1.3.2\src\core\pbuf.c 0x00000000   Number         0  pbuf.o ABSOLUTE
    ..\..\Utilities\lwip_v1.3.2\src\core\raw.c 0x00000000   Number         0  raw.o ABSOLUTE
    ..\..\Utilities\lwip_v1.3.2\src\core\stats.c 0x00000000   Number         0  stats.o ABSOLUTE
    ..\..\Utilities\lwip_v1.3.2\src\core\sys.c 0x00000000   Number         0  sys.o ABSOLUTE
    ..\..\Utilities\lwip_v1.3.2\src\core\tcp.c 0x00000000   Number         0  tcp.o ABSOLUTE
    ..\..\Utilities\lwip_v1.3.2\src\core\tcp_in.c 0x00000000   Number         0  tcp_in.o ABSOLUTE
    ..\..\Utilities\lwip_v1.3.2\src\core\tcp_out.c 0x00000000   Number         0  tcp_out.o ABSOLUTE
    ..\..\Utilities\lwip_v1.3.2\src\core\udp.c 0x00000000   Number         0  udp.o ABSOLUTE
    ..\..\Utilities\lwip_v1.3.2\src\netif\etharp.c 0x00000000   Number         0  etharp.o ABSOLUTE
    ..\..\Utilities\lwip_v1.3.2\src\netif\loopif.c 0x00000000   Number         0  loopif.o ABSOLUTE
    ..\..\Utilities\lwip_v1.3.2\src\netif\slipif.c 0x00000000   Number         0  slipif.o ABSOLUTE
    ..\\..\\Libraries\\STM32F4x7_ETH_Driver\\src\\stm32f4x7_eth.c 0x00000000   Number         0  stm32f4x7_eth.o ABSOLUTE
    ..\\..\\Libraries\\STM32F4xx_StdPeriph_Driver\\src\\misc.c 0x00000000   Number         0  misc.o ABSOLUTE
    ..\\..\\Libraries\\STM32F4xx_StdPeriph_Driver\\src\\stm32f4xx_adc.c 0x00000000   Number         0  stm32f4xx_adc.o ABSOLUTE
    ..\\..\\Libraries\\STM32F4xx_StdPeriph_Driver\\src\\stm32f4xx_dma.c 0x00000000   Number         0  stm32f4xx_dma.o ABSOLUTE
    ..\\..\\Libraries\\STM32F4xx_StdPeriph_Driver\\src\\stm32f4xx_exti.c 0x00000000   Number         0  stm32f4xx_exti.o ABSOLUTE
    ..\\..\\Libraries\\STM32F4xx_StdPeriph_Driver\\src\\stm32f4xx_flash.c 0x00000000   Number         0  stm32f4xx_flash.o ABSOLUTE
    ..\\..\\Libraries\\STM32F4xx_StdPeriph_Driver\\src\\stm32f4xx_fsmc.c 0x00000000   Number         0  stm32f4xx_fsmc.o ABSOLUTE
    ..\\..\\Libraries\\STM32F4xx_StdPeriph_Driver\\src\\stm32f4xx_gpio.c 0x00000000   Number         0  stm32f4xx_gpio.o ABSOLUTE
    ..\\..\\Libraries\\STM32F4xx_StdPeriph_Driver\\src\\stm32f4xx_i2c.c 0x00000000   Number         0  stm32f4xx_i2c.o ABSOLUTE
    ..\\..\\Libraries\\STM32F4xx_StdPeriph_Driver\\src\\stm32f4xx_pwr.c 0x00000000   Number         0  stm32f4xx_pwr.o ABSOLUTE
    ..\\..\\Libraries\\STM32F4xx_StdPeriph_Driver\\src\\stm32f4xx_rcc.c 0x00000000   Number         0  stm32f4xx_rcc.o ABSOLUTE
    ..\\..\\Libraries\\STM32F4xx_StdPeriph_Driver\\src\\stm32f4xx_rtc.c 0x00000000   Number         0  stm32f4xx_rtc.o ABSOLUTE
    ..\\..\\Libraries\\STM32F4xx_StdPeriph_Driver\\src\\stm32f4xx_sdio.c 0x00000000   Number         0  stm32f4xx_sdio.o ABSOLUTE
    ..\\..\\Libraries\\STM32F4xx_StdPeriph_Driver\\src\\stm32f4xx_spi.c 0x00000000   Number         0  stm32f4xx_spi.o ABSOLUTE
    ..\\..\\Libraries\\STM32F4xx_StdPeriph_Driver\\src\\stm32f4xx_syscfg.c 0x00000000   Number         0  stm32f4xx_syscfg.o ABSOLUTE
    ..\\..\\Libraries\\STM32F4xx_StdPeriph_Driver\\src\\stm32f4xx_tim.c 0x00000000   Number         0  stm32f4xx_tim.o ABSOLUTE
    ..\\..\\Libraries\\STM32F4xx_StdPeriph_Driver\\src\\stm32f4xx_usart.c 0x00000000   Number         0  stm32f4xx_usart.o ABSOLUTE
    ..\\..\\Utilities\\FreeRTOSv10.0.1\\portable\\RVDS\\ARM_CM4F\\port.c 0x00000000   Number         0  port.o ABSOLUTE
    ..\\..\\Utilities\\RS485_BUS\\Interface\\functions\\rs485utils.c 0x00000000   Number         0  rs485utils.o ABSOLUTE
    ..\\..\\Utilities\\RS485_BUS\\Interface\\rtu\\rs485rtu.c 0x00000000   Number         0  rs485rtu.o ABSOLUTE
    ..\\..\\Utilities\\RS485_BUS\\Interface\\rtu\\rs485rtu_m.c 0x00000000   Number         0  rs485rtu_m.o ABSOLUTE
    ..\\..\\Utilities\\RS485_BUS\\port\\rtos\\portother _m.c 0x00000000   Number         0  portother _m.o ABSOLUTE
    ..\\..\\Utilities\\RS485_BUS\\port\\rtos\\portother.c 0x00000000   Number         0  portother.o ABSOLUTE
    ..\\..\\Utilities\\RS485_BUS\\port\\rtos\\portserial.c 0x00000000   Number         0  portserial.o ABSOLUTE
    ..\\..\\Utilities\\RS485_BUS\\port\\rtos\\portserial_m.c 0x00000000   Number         0  portserial_m.o ABSOLUTE
    ..\\..\\Utilities\\RS485_BUS\\port\\rtos\\porttimer.c 0x00000000   Number         0  porttimer.o ABSOLUTE
    ..\\..\\Utilities\\RS485_BUS\\port\\rtos\\porttimer_m.c 0x00000000   Number         0  porttimer_m.o ABSOLUTE
    ..\\..\\Utilities\\STM32F4-Discovery\\stm32f4_discovery.c 0x00000000   Number         0  stm32f4_discovery.o ABSOLUTE
    ..\\..\\Utilities\\STM32F4-Discovery\\stm32f4_discovery_lcd.c 0x00000000   Number         0  stm32f4_discovery_lcd.o ABSOLUTE
    ..\\..\\Utilities\\lwip_v1.3.2\\port\\STM32F4x7\\FreeRTOS\\ethernetif.c 0x00000000   Number         0  ethernetif.o ABSOLUTE
    ..\\src\\RS485bus_task.c                 0x00000000   Number         0  rs485bus_task.o ABSOLUTE
    ..\\src\\RS485bus_task_m.c               0x00000000   Number         0  rs485bus_task_m.o ABSOLUTE
    ..\\src\\TCPMBbus_task.c                 0x00000000   Number         0  tcpmbbus_task.o ABSOLUTE
    ..\\src\\api_server.c                    0x00000000   Number         0  api_server.o ABSOLUTE
    ..\\src\\httpserver-socket.c             0x00000000   Number         0  httpserver-socket.o ABSOLUTE
    ..\\src\\hw_config.c                     0x00000000   Number         0  hw_config.o ABSOLUTE
    ..\\src\\key_scan.c                      0x00000000   Number         0  key_scan.o ABSOLUTE
    ..\\src\\keyscan_task.c                  0x00000000   Number         0  keyscan_task.o ABSOLUTE
    ..\\src\\main.c                          0x00000000   Number         0  main.o ABSOLUTE
    ..\\src\\stm32f4x7_eth_bsp.c             0x00000000   Number         0  stm32f4x7_eth_bsp.o ABSOLUTE
    ..\\src\\stm32f4xx_it.c                  0x00000000   Number         0  stm32f4xx_it.o ABSOLUTE
    ..\\src\\stm32f4xx_uartstdio.c           0x00000000   Number         0  stm32f4xx_uartstdio.o ABSOLUTE
    ..\\src\\system_stm32f4xx.c              0x00000000   Number         0  system_stm32f4xx.o ABSOLUTE
    ..\\src\\tm_stm32f4_i2c.c                0x00000000   Number         0  tm_stm32f4_i2c.o ABSOLUTE
    ..\src\MQTTClientTask.c                  0x00000000   Number         0  mqttclienttask.o ABSOLUTE
    ..\src\RS485bus_task.c                   0x00000000   Number         0  rs485bus_task.o ABSOLUTE
    ..\src\RS485bus_task_m.c                 0x00000000   Number         0  rs485bus_task_m.o ABSOLUTE
    ..\src\TCPMBbus_task.c                   0x00000000   Number         0  tcpmbbus_task.o ABSOLUTE
    ..\src\api_server.c                      0x00000000   Number         0  api_server.o ABSOLUTE
    ..\src\fs.c                              0x00000000   Number         0  fs.o ABSOLUTE
    ..\src\httpserver-socket.c               0x00000000   Number         0  httpserver-socket.o ABSOLUTE
    ..\src\hw_config.c                       0x00000000   Number         0  hw_config.o ABSOLUTE
    ..\src\key_scan.c                        0x00000000   Number         0  key_scan.o ABSOLUTE
    ..\src\keyscan_task.c                    0x00000000   Number         0  keyscan_task.o ABSOLUTE
    ..\src\main.c                            0x00000000   Number         0  main.o ABSOLUTE
    ..\src\miscellaneous.c                   0x00000000   Number         0  miscellaneous.o ABSOLUTE
    ..\src\netconf.c                         0x00000000   Number         0  netconf.o ABSOLUTE
    ..\src\stm32f4x7_eth_bsp.c               0x00000000   Number         0  stm32f4x7_eth_bsp.o ABSOLUTE
    ..\src\stm32f4xx_it.c                    0x00000000   Number         0  stm32f4xx_it.o ABSOLUTE
    ..\src\stm32f4xx_uartstdio.c             0x00000000   Number         0  stm32f4xx_uartstdio.o ABSOLUTE
    ..\src\system_stm32f4xx.c                0x00000000   Number         0  system_stm32f4xx.o ABSOLUTE
    ..\src\tm_stm32f4_i2c.c                  0x00000000   Number         0  tm_stm32f4_i2c.o ABSOLUTE
    cdcmple.s                                0x00000000   Number         0  cdcmple.o ABSOLUTE
    cdrcmple.s                               0x00000000   Number         0  cdrcmple.o ABSOLUTE
    dc.s                                     0x00000000   Number         0  dc.o ABSOLUTE
    handlers.s                               0x00000000   Number         0  handlers.o ABSOLUTE
    init.s                                   0x00000000   Number         0  init.o ABSOLUTE
    startup_stm32f4xx.s                      0x00000000   Number         0  startup_stm32f4xx.o ABSOLUTE
    RESET                                    0x08000000   Section      392  startup_stm32f4xx.o(RESET)
    .ARM.Collect$$$$00000000                 0x08000188   Section        0  entry.o(.ARM.Collect$$$$00000000)
    .ARM.Collect$$$$00000001                 0x08000188   Section        4  entry2.o(.ARM.Collect$$$$00000001)
    .ARM.Collect$$$$00000004                 0x0800018c   Section        4  entry5.o(.ARM.Collect$$$$00000004)
    .ARM.Collect$$$$00000008                 0x08000190   Section        0  entry7b.o(.ARM.Collect$$$$00000008)
    .ARM.Collect$$$$0000000A                 0x08000190   Section        0  entry8b.o(.ARM.Collect$$$$0000000A)
    .ARM.Collect$$$$0000000B                 0x08000190   Section        8  entry9a.o(.ARM.Collect$$$$0000000B)
    .ARM.Collect$$$$0000000D                 0x08000198   Section        0  entry10a.o(.ARM.Collect$$$$0000000D)
    .ARM.Collect$$$$0000000F                 0x08000198   Section        0  entry11a.o(.ARM.Collect$$$$0000000F)
    .ARM.Collect$$$$00002712                 0x08000198   Section        4  entry2.o(.ARM.Collect$$$$00002712)
    __lit__00000000                          0x08000198   Data           4  entry2.o(.ARM.Collect$$$$00002712)
    .emb_text                                0x0800019c   Section      190  port.o(.emb_text)
    $v0                                      0x0800019c   Number         0  port.o(.emb_text)
    .text                                    0x0800025c   Section        0  main.o(.text)
    .text                                    0x08000c9c   Section        0  system_stm32f4xx.o(.text)
    SetSysClock                              0x08000c9d   Thumb Code   162  system_stm32f4xx.o(.text)
    .text                                    0x08000e1c   Section        0  stm32f4xx_it.o(.text)
    .text                                    0x08000e94   Section        0  netconf.o(.text)
    .text                                    0x08001038   Section        0  stm32f4x7_eth_bsp.o(.text)
    ETH_GPIO_Config                          0x08001099   Thumb Code   264  stm32f4x7_eth_bsp.o(.text)
    .text                                    0x08001328   Section        0  fs.o(.text)
    fs_free                                  0x080013d1   Thumb Code    38  fs.o(.text)
    .text                                    0x08001400   Section        0  httpserver-socket.o(.text)
    http_server_socket_thread                0x0800219f   Thumb Code   250  httpserver-socket.o(.text)
    .text                                    0x08002338   Section        0  miscellaneous.o(.text)
    .text                                    0x08002488   Section        0  api_server.o(.text)
    .text                                    0x0800310c   Section        0  mqttclienttask.o(.text)
    prvMQTTPublishTask                       0x08003203   Thumb Code  1988  mqttclienttask.o(.text)
    .text                                    0x08003b14   Section        0  key_scan.o(.text)
    .text                                    0x08003bf0   Section        0  keyscan_task.o(.text)
    prvkeyscanSlavePublishTask               0x08003bf1   Thumb Code   122  keyscan_task.o(.text)
    .text                                    0x08003cb8   Section        0  rs485bus_task_m.o(.text)
    prvRS485MasterPublishTask                0x08003cb9   Thumb Code   114  rs485bus_task_m.o(.text)
    .text                                    0x08003d58   Section        0  tcpmbbus_task.o(.text)
    prvTCPMBPublishTask                      0x08003d59   Thumb Code   102  tcpmbbus_task.o(.text)
    .text                                    0x08003e18   Section        0  mqttclient.o(.text)
    sendPacket                               0x08003e19   Thumb Code    84  mqttclient.o(.text)
    readPacket                               0x08003eb7   Thumb Code   192  mqttclient.o(.text)
    getNextPacketId                          0x08004589   Thumb Code    22  mqttclient.o(.text)
    .text                                    0x080045a4   Section        0  mqttfreertos.o(.text)
    .text                                    0x08004754   Section        0  mqttconnectclient.o(.text)
    .text                                    0x08004978   Section        0  mqttdeserializepublish.o(.text)
    .text                                    0x08004a4c   Section        0  mqttpacket.o(.text)
    .text                                    0x08004d48   Section        0  mqttserializepublish.o(.text)
    .text                                    0x08004e5e   Section        0  mqttsubscribeclient.o(.text)
    .text                                    0x08004f92   Section        0  mqttunsubscribeclient.o(.text)
    .text                                    0x08005060   Section        0  rs485crc.o(.text)
    .text                                    0x0800508c   Section        0  rs485bus_m.o(.text)
    .text                                    0x08005334   Section        0  rs485rtu_m.o(.text)
    .text                                    0x0800567c   Section        0  rs485funcperiodicping_m.o(.text)
    .text                                    0x080056e8   Section        0  portserial_m.o(.text)
    serial_soft_trans_irq                    0x080056e9   Thumb Code    30  portserial_m.o(.text)
    prvvPORTRxISR                            0x08005a3b   Thumb Code     6  portserial_m.o(.text)
    .text                                    0x08005a74   Section        0  porttimer_m.o(.text)
    .text                                    0x08005c80   Section        0  user_rs485_app_m.o(.text)
    .text                                    0x08005d24   Section        0  portevent_m.o(.text)
    .text                                    0x08005e64   Section        0  mbfuncholding_m.o(.text)
    .text                                    0x08006054   Section        0  api_lib.o(.text)
    .text                                    0x08006354   Section        0  api_msg.o(.text)
    recv_raw                                 0x08006355   Thumb Code   114  api_msg.o(.text)
    recv_udp                                 0x080063c7   Thumb Code   102  api_msg.o(.text)
    recv_tcp                                 0x0800642d   Thumb Code    64  api_msg.o(.text)
    err_tcp                                  0x0800646d   Thumb Code   100  api_msg.o(.text)
    do_writemore                             0x080064d1   Thumb Code   182  api_msg.o(.text)
    sent_tcp                                 0x08006587   Thumb Code    66  api_msg.o(.text)
    do_close_internal                        0x080065c9   Thumb Code   156  api_msg.o(.text)
    poll_tcp                                 0x08006665   Thumb Code    28  api_msg.o(.text)
    setup_tcp                                0x08006681   Thumb Code    50  api_msg.o(.text)
    accept_function                          0x0800678f   Thumb Code    86  api_msg.o(.text)
    do_connected                             0x080068c3   Thumb Code    44  api_msg.o(.text)
    pcb_new                                  0x08006b7f   Thumb Code   136  api_msg.o(.text)
    .text                                    0x08006c10   Section        0  netbuf.o(.text)
    .text                                    0x08006d40   Section        0  sockets.o(.text)
    alloc_socket                             0x08006d57   Thumb Code    82  sockets.o(.text)
    event_callback                           0x08006da9   Thumb Code   226  sockets.o(.text)
    lwip_selscan                             0x080073dd   Thumb Code   150  sockets.o(.text)
    lwip_getaddrname                         0x08007605   Thumb Code   106  sockets.o(.text)
    lwip_getsockopt_internal                 0x08007677   Thumb Code   236  sockets.o(.text)
    lwip_setsockopt_internal                 0x08007851   Thumb Code   186  sockets.o(.text)
    get_socket                               0x08007a51   Thumb Code    24  sockets.o(.text)
    .text                                    0x08007a7c   Section        0  tcpip.o(.text)
    tcpip_tcp_timer                          0x08007a7d   Thumb Code    40  tcpip.o(.text)
    arp_timer                                0x08007ac9   Thumb Code    22  tcpip.o(.text)
    dhcp_timer_coarse                        0x08007adf   Thumb Code    22  tcpip.o(.text)
    dhcp_timer_fine                          0x08007af5   Thumb Code    22  tcpip.o(.text)
    autoip_timer                             0x08007b0b   Thumb Code    20  tcpip.o(.text)
    tcpip_thread                             0x08007b1f   Thumb Code   160  tcpip.o(.text)
    pbuf_free_int                            0x08007d23   Thumb Code     4  tcpip.o(.text)
    .text                                    0x08007d6c   Section        0  dhcp.o(.text)
    dhcp_option_trailer                      0x08007d6d   Thumb Code    48  dhcp.o(.text)
    dhcp_create_request                      0x08007d9d   Thumb Code   248  dhcp.o(.text)
    dhcp_discover                            0x08007e95   Thumb Code   200  dhcp.o(.text)
    dhcp_check                               0x08007f5d   Thumb Code    48  dhcp.o(.text)
    dhcp_option_long                         0x08007f8d   Thumb Code    66  dhcp.o(.text)
    dhcp_select                              0x08007fcf   Thumb Code   278  dhcp.o(.text)
    dhcp_get_option_ptr                      0x080080e5   Thumb Code   126  dhcp.o(.text)
    dhcp_rebind                              0x08008229   Thumb Code   180  dhcp.o(.text)
    dhcp_reboot                              0x08008337   Thumb Code   170  dhcp.o(.text)
    dhcp_bind                                0x08008493   Thumb Code   210  dhcp.o(.text)
    dhcp_handle_ack                          0x08008593   Thumb Code   220  dhcp.o(.text)
    dhcp_free_reply                          0x080086b1   Thumb Code    32  dhcp.o(.text)
    dhcp_recv                                0x080086d1   Thumb Code   294  dhcp.o(.text)
    dhcp_delete_request                      0x0800897d   Thumb Code    28  dhcp.o(.text)
    dhcp_option_byte                         0x08008999   Thumb Code    16  dhcp.o(.text)
    dhcp_option                              0x080089a9   Thumb Code    32  dhcp.o(.text)
    dhcp_option_short                        0x080089c9   Thumb Code    34  dhcp.o(.text)
    dhcp_set_state                           0x080089eb   Thumb Code    14  dhcp.o(.text)
    dhcp_get_option_long                     0x080089f9   Thumb Code    22  dhcp.o(.text)
    dhcp_timeout                             0x08008a0f   Thumb Code   132  dhcp.o(.text)
    dhcp_unfold_reply                        0x08008a93   Thumb Code   106  dhcp.o(.text)
    dhcp_decline                             0x08008afd   Thumb Code   140  dhcp.o(.text)
    .text                                    0x08008b88   Section        0  init.o(.text)
    .text                                    0x08008ba4   Section        0  mem.o(.text)
    plug_holes                               0x08008dc7   Thumb Code    78  mem.o(.text)
    .text                                    0x08008e1c   Section        0  memp.o(.text)
    .text                                    0x08008ea4   Section        0  netif.o(.text)
    .text                                    0x08009034   Section        0  pbuf.o(.text)
    .text                                    0x0800941c   Section        0  raw.o(.text)
    .text                                    0x0800957c   Section        0  sys.o(.text)
    sswt_handler                             0x080096ef   Thumb Code    12  sys.o(.text)
    .text                                    0x08009754   Section        0  tcp.o(.text)
    tcp_new_port                             0x08009ca1   Thumb Code    92  tcp.o(.text)
    tcp_accept_null                          0x08009db7   Thumb Code     6  tcp.o(.text)
    .text                                    0x0800a070   Section        0  tcp_in.o(.text)
    tcp_receive                              0x0800a071   Thumb Code  1076  tcp_in.o(.text)
    tcp_parseopt                             0x0800a4a5   Thumb Code   124  tcp_in.o(.text)
    tcp_process                              0x0800a521   Thumb Code   820  tcp_in.o(.text)
    tcp_listen_input                         0x0800a855   Thumb Code   274  tcp_in.o(.text)
    tcp_timewait_input                       0x0800ac49   Thumb Code   100  tcp_in.o(.text)
    .text                                    0x0800acc4   Section        0  tcp_out.o(.text)
    tcp_output_set_header                    0x0800acc5   Thumb Code   124  tcp_out.o(.text)
    tcp_output_segment                       0x0800b10d   Thumb Code   168  tcp_out.o(.text)
    .text                                    0x0800b5b8   Section        0  udp.o(.text)
    .text                                    0x0800b8f4   Section        0  autoip.o(.text)
    autoip_start_probing                     0x0800b8f7   Thumb Code    68  autoip.o(.text)
    autoip_arp_announce                      0x0800bba1   Thumb Code    32  autoip.o(.text)
    .text                                    0x0800bbe0   Section        0  icmp.o(.text)
    .text                                    0x0800bd5c   Section        0  inet.o(.text)
    .text                                    0x0800bec8   Section        0  inet_chksum.o(.text)
    lwip_standard_chksum                     0x0800bec9   Thumb Code    60  inet_chksum.o(.text)
    .text                                    0x0800bfe0   Section        0  ip.o(.text)
    .text                                    0x0800c290   Section        0  ip_addr.o(.text)
    .text                                    0x0800c2c0   Section        0  etharp.o(.text)
    find_entry                               0x0800c2f7   Thumb Code   224  etharp.o(.text)
    etharp_send_ip                           0x0800c3d7   Thumb Code    54  etharp.o(.text)
    update_arp_entry                         0x0800c40d   Thumb Code   108  etharp.o(.text)
    .text                                    0x0800c840   Section        0  ethernetif.o(.text)
    ethernetif_input                         0x0800c841   Thumb Code    40  ethernetif.o(.text)
    low_level_output                         0x0800c869   Thumb Code   100  ethernetif.o(.text)
    arp_timer                                0x0800c8cd   Thumb Code    22  ethernetif.o(.text)
    low_level_input                          0x0800c911   Thumb Code   126  ethernetif.o(.text)
    low_level_init                           0x0800c98f   Thumb Code   174  ethernetif.o(.text)
    .text                                    0x0800ca80   Section        0  sys_arch.o(.text)
    .text                                    0x0800cc44   Section        0  stm32f4xx_uartstdio.o(.text)
    .text                                    0x0800d1b8   Section        0  stm32f4_discovery.o(.text)
    .text                                    0x0800d684   Section        0  stm32f4x7_eth.o(.text)
    ETH_Delay                                0x0800e14d   Thumb Code    18  stm32f4x7_eth.o(.text)
    .text                                    0x0800e168   Section        0  stm32f4xx_usart.o(.text)
    .text                                    0x0800e4a0   Section        0  misc.o(.text)
    .text                                    0x0800e550   Section        0  stm32f4xx_adc.o(.text)
    .text                                    0x0800e8a4   Section        0  stm32f4xx_dma.o(.text)
    .text                                    0x0800ebc4   Section        0  stm32f4xx_exti.o(.text)
    .text                                    0x0800ecac   Section        0  stm32f4xx_gpio.o(.text)
    .text                                    0x0800ee98   Section        0  stm32f4xx_rcc.o(.text)
    .text                                    0x0800f274   Section        0  stm32f4xx_syscfg.o(.text)
    .text                                    0x0800f2ec   Section        0  stm32f4xx_sdio.o(.text)
    .text                                    0x0800f4a4   Section        0  stm32f4xx_tim.o(.text)
    TI2_Config                               0x0800faef   Thumb Code    54  stm32f4xx_tim.o(.text)
    TI1_Config                               0x0800fe53   Thumb Code    46  stm32f4xx_tim.o(.text)
    .text                                    0x0800fe80   Section        0  stm32f4xx_flash.o(.text)
    .text                                    0x08010210   Section        0  stm32f4xx_rtc.o(.text)
    RTC_ByteToBcd2                           0x08010c27   Thumb Code    24  stm32f4xx_rtc.o(.text)
    RTC_Bcd2ToByte                           0x08010c3f   Thumb Code    18  stm32f4xx_rtc.o(.text)
    .text                                    0x08010c5c   Section        0  stm32f4xx_pwr.o(.text)
    .text                                    0x08010d2c   Section        0  list.o(.text)
    .text                                    0x08010db8   Section        0  queue.o(.text)
    prvUnlockQueue                           0x08010e8f   Thumb Code   106  queue.o(.text)
    prvCopyDataToQueue                       0x08010ef9   Thumb Code   106  queue.o(.text)
    prvCopyDataFromQueue                     0x0801143d   Thumb Code    38  queue.o(.text)
    prvIsQueueEmpty                          0x080118d7   Thumb Code    26  queue.o(.text)
    .text                                    0x080118f8   Section        0  tasks.o(.text)
    prvAddNewTaskToReadyList                 0x080118f9   Thumb Code   192  tasks.o(.text)
    prvAddCurrentTaskToDelayedList           0x08011c23   Thumb Code   102  tasks.o(.text)
    prvTaskIsTaskSuspended                   0x08011f4d   Thumb Code    48  tasks.o(.text)
    prvIdleTask                              0x0801206b   Thumb Code    80  tasks.o(.text)
    prvSearchForNameWithinSingleList         0x08012179   Thumb Code    88  tasks.o(.text)
    prvListTasksWithinSingleList             0x080122c1   Thumb Code    84  tasks.o(.text)
    prvInitialiseNewTask                     0x08012b0b   Thumb Code   154  tasks.o(.text)
    prvResetNextTaskUnblockTime              0x08012ba5   Thumb Code    26  tasks.o(.text)
    prvDeleteTCB                             0x08012bbf   Thumb Code    20  tasks.o(.text)
    .text                                    0x08012be4   Section        0  port.o(.text)
    prvTaskExitError                         0x08012be5   Thumb Code    36  port.o(.text)
    .text                                    0x08012e38   Section        0  heap_2.o(.text)
    .text                                    0x08012f30   Section       36  startup_stm32f4xx.o(.text)
    $v0                                      0x08012f30   Number         0  startup_stm32f4xx.o(.text)
    .text                                    0x08012f54   Section        0  tcp_mb.o(.text)
    .text                                    0x08013120   Section        0  mbtcp.o(.text)
    .text                                    0x08013190   Section        0  port_tcp.o(.text)
    prvvMBTCPPortError                       0x080131f9   Thumb Code    26  port_tcp.o(.text)
    prvxMBTCPPortReceive                     0x08013213   Thumb Code   150  port_tcp.o(.text)
    prvxMBTCPPortAccept                      0x080132a9   Thumb Code   106  port_tcp.o(.text)
    .text                                    0x080134fc   Section        0  portevent_tcp.o(.text)
    .text                                    0x08013530   Section        0  portother_tcp.o(.text)
    .text                                    0x08013660   Section        0  mbfuncother.o(.text)
    .text                                    0x080136c4   Section        0  mbutils.o(.text)
    .text                                    0x08013730   Section        0  memcpya.o(.text)
    .text                                    0x08013754   Section        0  memseta.o(.text)
    .text                                    0x08013778   Section        0  strcat.o(.text)
    .text                                    0x08013790   Section        0  strstr.o(.text)
    .text                                    0x080137b4   Section        0  strlen.o(.text)
    .text                                    0x080137c2   Section        0  strcmp.o(.text)
    .text                                    0x080137de   Section        0  memcmp.o(.text)
    .text                                    0x080137f8   Section        0  strncat.o(.text)
    .text                                    0x08013820   Section        0  strcpy.o(.text)
    .text                                    0x08013832   Section        0  strncmp.o(.text)
    .text                                    0x08013850   Section        0  strpbrk.o(.text)
    .text                                    0x08013870   Section        0  atoi.o(.text)
    .text                                    0x0801388c   Section       48  cdrcmple.o(.text)
    .text                                    0x080138bc   Section        0  uidiv.o(.text)
    .text                                    0x080138e8   Section        0  uldiv.o(.text)
    .text                                    0x0801394a   Section        0  strtol.o(.text)
    .text                                    0x080139ba   Section        0  depilogue.o(.text)
    .text                                    0x080139ba   Section        0  iusefp.o(.text)
    .text                                    0x08013a74   Section        0  dadd.o(.text)
    .text                                    0x08013bc2   Section        0  dmul.o(.text)
    .text                                    0x08013ca6   Section        0  ddiv.o(.text)
    .text                                    0x08013d84   Section        0  dfixul.o(.text)
    .text                                    0x08013db4   Section       36  init.o(.text)
    .text                                    0x08013dd8   Section        0  llshl.o(.text)
    .text                                    0x08013df6   Section        0  llushr.o(.text)
    .text                                    0x08013e16   Section        0  llsshr.o(.text)
    .text                                    0x08013e3c   Section        0  ctype_o.o(.text)
    .text                                    0x08013e44   Section        0  _strtoul.o(.text)
    .text                                    0x08013ee2   Section        0  _chval.o(.text)
    .text                                    0x08013efe   Section        0  __dczerorl2.o(.text)
    i.__0printf$8                            0x08013f54   Section        0  printf8.o(i.__0printf$8)
    i.__0snprintf$8                          0x08013f74   Section        0  printf8.o(i.__0snprintf$8)
    i.__0sprintf$8                           0x08013fa4   Section        0  printf8.o(i.__0sprintf$8)
    i.__0vprintf                             0x08013fcc   Section        0  printfa.o(i.__0vprintf)
    i.__aeabi_errno_addr                     0x08013fdc   Section        0  errno.o(i.__aeabi_errno_addr)
    i.__scatterload_copy                     0x08013fe4   Section       14  handlers.o(i.__scatterload_copy)
    i.__scatterload_null                     0x08013ff2   Section        2  handlers.o(i.__scatterload_null)
    i.__scatterload_zeroinit                 0x08013ff4   Section       14  handlers.o(i.__scatterload_zeroinit)
    i._fp_digits                             0x08014004   Section        0  printfa.o(i._fp_digits)
    _fp_digits                               0x08014005   Thumb Code   366  printfa.o(i._fp_digits)
    i._printf_core                           0x08014188   Section        0  printf8.o(i._printf_core)
    _printf_core                             0x08014189   Thumb Code   996  printf8.o(i._printf_core)
    i._printf_core                           0x08014598   Section        0  printfa.o(i._printf_core)
    _printf_core                             0x08014599   Thumb Code  1744  printfa.o(i._printf_core)
    i._printf_post_padding                   0x08014c74   Section        0  printf8.o(i._printf_post_padding)
    _printf_post_padding                     0x08014c75   Thumb Code    36  printf8.o(i._printf_post_padding)
    i._printf_post_padding                   0x08014c98   Section        0  printfa.o(i._printf_post_padding)
    _printf_post_padding                     0x08014c99   Thumb Code    36  printfa.o(i._printf_post_padding)
    i._printf_pre_padding                    0x08014cbc   Section        0  printf8.o(i._printf_pre_padding)
    _printf_pre_padding                      0x08014cbd   Thumb Code    46  printf8.o(i._printf_pre_padding)
    i._printf_pre_padding                    0x08014cea   Section        0  printfa.o(i._printf_pre_padding)
    _printf_pre_padding                      0x08014ceb   Thumb Code    46  printfa.o(i._printf_pre_padding)
    i._snputc                                0x08014d18   Section        0  printf8.o(i._snputc)
    _snputc                                  0x08014d19   Thumb Code    22  printf8.o(i._snputc)
    i._sputc                                 0x08014d2e   Section        0  printf8.o(i._sputc)
    _sputc                                   0x08014d2f   Thumb Code    10  printf8.o(i._sputc)
    .constdata                               0x08014d38   Section     1243  fs.o(.constdata)
    data__404_html                           0x08014d38   Data        1243  fs.o(.constdata)
    .constdata                               0x08015213   Section     4360  fs.o(.constdata)
    data__login_html                         0x08015213   Data        4360  fs.o(.constdata)
    .constdata                               0x0801631b   Section     3748  fs.o(.constdata)
    data__index_html                         0x0801631b   Data        3748  fs.o(.constdata)
    .constdata                               0x080171bf   Section     4362  fs.o(.constdata)
    data__lanconfig_html                     0x080171bf   Data        4362  fs.o(.constdata)
    .constdata                               0x080182c9   Section     4121  fs.o(.constdata)
    data__hostconfig_html                    0x080182c9   Data        4121  fs.o(.constdata)
    .constdata                               0x080192e2   Section     4339  fs.o(.constdata)
    data__maintain_html                      0x080192e2   Data        4339  fs.o(.constdata)
    .constdata                               0x0801a3d5   Section      586  fs.o(.constdata)
    data__reboot_html                        0x0801a3d5   Data         586  fs.o(.constdata)
    .constdata                               0x0801a61f   Section     3267  fs.o(.constdata)
    data__style_css                          0x0801a61f   Data        3267  fs.o(.constdata)
    .constdata                               0x0801b2e2   Section      192  fs.o(.constdata)
    data__script_common_js                   0x0801b2e2   Data         192  fs.o(.constdata)
    .constdata                               0x0801b3a2   Section     7578  fs.o(.constdata)
    data__portconfig_html                    0x0801b3a2   Data        7578  fs.o(.constdata)
    .constdata                               0x0801d13c   Section       20  fs.o(.constdata)
    .constdata                               0x0801d150   Section       20  fs.o(.constdata)
    .constdata                               0x0801d164   Section       20  fs.o(.constdata)
    .constdata                               0x0801d178   Section       20  fs.o(.constdata)
    .constdata                               0x0801d18c   Section       20  fs.o(.constdata)
    .constdata                               0x0801d1a0   Section       20  fs.o(.constdata)
    .constdata                               0x0801d1b4   Section       20  fs.o(.constdata)
    .constdata                               0x0801d1c8   Section       20  fs.o(.constdata)
    .constdata                               0x0801d1dc   Section       20  fs.o(.constdata)
    .constdata                               0x0801d1f0   Section       20  fs.o(.constdata)
    .constdata                               0x0801d204   Section       50  httpserver-socket.o(.constdata)
    STR_CRLF                                 0x0801d204   Data           3  httpserver-socket.o(.constdata)
    STR_HTTP_RESPONSE                        0x0801d207   Data          14  httpserver-socket.o(.constdata)
    STR_HTTP_RESPONSE_OK                     0x0801d215   Data          16  httpserver-socket.o(.constdata)
    STR_HTTP_RESPONSE_ERR                    0x0801d225   Data          17  httpserver-socket.o(.constdata)
    .constdata                               0x0801d238   Section       88  mqttclienttask.o(.constdata)
    .constdata                               0x0801d290   Section       88  mqttclient.o(.constdata)
    .constdata                               0x0801d2e8   Section      512  rs485crc.o(.constdata)
    aucCRCHi                                 0x0801d2e8   Data         256  rs485crc.o(.constdata)
    aucCRCLo                                 0x0801d3e8   Data         256  rs485crc.o(.constdata)
    .constdata                               0x0801d4e8   Section       60  sockets.o(.constdata)
    err_to_errno_table                       0x0801d4e8   Data          60  sockets.o(.constdata)
    .constdata                               0x0801d524   Section       48  memp.o(.constdata)
    memp_sizes                               0x0801d524   Data          24  memp.o(.constdata)
    memp_num                                 0x0801d53c   Data          24  memp.o(.constdata)
    .constdata                               0x0801d554   Section       20  tcp.o(.constdata)
    .constdata                               0x0801d568   Section        4  ip_addr.o(.constdata)
    .constdata                               0x0801d56c   Section        4  ip_addr.o(.constdata)
    .constdata                               0x0801d570   Section       12  etharp.o(.constdata)
    .constdata                               0x0801d57c   Section        4  stm32f4xx_uartstdio.o(.constdata)
    g_pcHex                                  0x0801d57c   Data           4  stm32f4xx_uartstdio.o(.constdata)
    .constdata                               0x0801d580   Section       92  stm32f4_discovery.o(.constdata)
    .constdata                               0x0801d5dc   Section      129  ctype_o.o(.constdata)
    .constdata                               0x0801d660   Section        4  ctype_o.o(.constdata)
    table                                    0x0801d660   Data           4  ctype_o.o(.constdata)
    .conststring                             0x0801d664   Section       70  main.o(.conststring)
    .conststring                             0x0801d6ac   Section      117  tcp.o(.conststring)
    .conststring                             0x0801d724   Section       17  stm32f4xx_uartstdio.o(.conststring)
    .conststring                             0x0801d738   Section       30  portother_tcp.o(.conststring)
    .data                                    0x20000000   Section       12  main.o(.data)
    state                                    0x20000002   Data           2  main.o(.data)
    .data                                    0x2000000c   Section       20  system_stm32f4xx.o(.data)
    .data                                    0x20000020   Section       12  netconf.o(.data)
    .data                                    0x2000002c   Section       12  stm32f4x7_eth_bsp.o(.data)
    Linked_Status                            0x2000002c   Data           1  stm32f4x7_eth_bsp.o(.data)
    .data                                    0x20000038   Section       16  httpserver-socket.o(.data)
    S_addr_login                             0x20000038   Data           8  httpserver-socket.o(.data)
    Time_login                               0x20000040   Data           8  httpserver-socket.o(.data)
    .data                                    0x20000048   Section        3  api_server.o(.data)
    .data                                    0x2000004b   Section       14  tcpmbbus_task.o(.data)
    Vendor                                   0x2000004b   Data          14  tcpmbbus_task.o(.data)
    .data                                    0x2000005c   Section        4  mqttpacket.o(.data)
    bufptr                                   0x2000005c   Data           4  mqttpacket.o(.data)
    .data                                    0x20000060   Section       96  rs485bus_m.o(.data)
    eRS485State                              0x20000060   Data           1  rs485bus_m.o(.data)
    ucRcvAddress                             0x20000061   Data           1  rs485bus_m.o(.data)
    ucFunctionCode                           0x20000062   Data           1  rs485bus_m.o(.data)
    eException                               0x20000063   Data           1  rs485bus_m.o(.data)
    usLength                                 0x20000064   Data           2  rs485bus_m.o(.data)
    ucRS485Frame                             0x20000068   Data           4  rs485bus_m.o(.data)
    xRS485RunInMasterMode                    0x2000006c   Data           4  rs485bus_m.o(.data)
    eMasterCurErrorType                      0x20000070   Data           4  rs485bus_m.o(.data)
    ucMBMasterDestAddress                    0x20000074   Data           4  rs485bus_m.o(.data)
    peRS485MasterFrameSendCur                0x20000078   Data           4  rs485bus_m.o(.data)
    pvRS485MasterFrameStartCur               0x2000007c   Data           4  rs485bus_m.o(.data)
    pvRS485MasterFrameStopCur                0x20000080   Data           4  rs485bus_m.o(.data)
    peRS485MasterFrameReceiveCur             0x20000084   Data           4  rs485bus_m.o(.data)
    pvRS485MasterFrameCloseCur               0x20000088   Data           4  rs485bus_m.o(.data)
    xMasterFuncHandlers                      0x20000098   Data          40  rs485bus_m.o(.data)
    .data                                    0x200000c0   Section       40  rs485rtu_m.o(.data)
    eSndState                                0x200000c0   Data           4  rs485rtu_m.o(.data)
    eRcvState                                0x200000c4   Data           4  rs485rtu_m.o(.data)
    xFrameIsBroadcast                        0x200000c8   Data           4  rs485rtu_m.o(.data)
    eMasterCurTimerMode                      0x200000cc   Data           4  rs485rtu_m.o(.data)
    usMasterSendPDULength                    0x200000d0   Data           8  rs485rtu_m.o(.data)
    usMasterSndBufferCount                   0x200000d8   Data           8  rs485rtu_m.o(.data)
    usMasterRcvBufferPos                     0x200000e0   Data           8  rs485rtu_m.o(.data)
    .data                                    0x200000e8   Section        4  portserial_m.o(.data)
    event_serial                             0x200000e8   Data           4  portserial_m.o(.data)
    .data                                    0x200000ec   Section        4  porttimer_m.o(.data)
    bConfigStatus                            0x200000ec   Data           1  porttimer_m.o(.data)
    PortTimeOut                              0x200000ee   Data           2  porttimer_m.o(.data)
    .data                                    0x200000f0   Section        4  portevent_m.o(.data)
    xMasterOsEvent                           0x200000f0   Data           4  portevent_m.o(.data)
    .data                                    0x200000f4   Section       12  sockets.o(.data)
    select_cb_list                           0x200000f4   Data           4  sockets.o(.data)
    socksem                                  0x200000f8   Data           4  sockets.o(.data)
    selectsem                                0x200000fc   Data           4  sockets.o(.data)
    .data                                    0x20000100   Section       16  tcpip.o(.data)
    mbox                                     0x20000100   Data           4  tcpip.o(.data)
    tcpip_init_done                          0x20000104   Data           4  tcpip.o(.data)
    tcpip_init_done_arg                      0x20000108   Data           4  tcpip.o(.data)
    tcpip_tcp_timer_active                   0x2000010c   Data           4  tcpip.o(.data)
    .data                                    0x20000110   Section        4  dhcp.o(.data)
    xid                                      0x20000110   Data           4  dhcp.o(.data)
    .data                                    0x20000114   Section       16  mem.o(.data)
    ram                                      0x20000114   Data           4  mem.o(.data)
    ram_end                                  0x20000118   Data           4  mem.o(.data)
    lfree                                    0x2000011c   Data           4  mem.o(.data)
    mem_sem                                  0x20000120   Data           4  mem.o(.data)
    .data                                    0x20000124   Section       12  netif.o(.data)
    netifnum                                 0x20000124   Data           1  netif.o(.data)
    .data                                    0x20000130   Section        4  raw.o(.data)
    raw_pcbs                                 0x20000130   Data           4  raw.o(.data)
    .data                                    0x20000134   Section       76  tcp.o(.data)
    tcp_timer                                0x20000134   Data           1  tcp.o(.data)
    port                                     0x20000136   Data           2  tcp.o(.data)
    iss                                      0x20000138   Data           4  tcp.o(.data)
    .data                                    0x20000180   Section       28  tcp_in.o(.data)
    flags                                    0x20000180   Data           1  tcp_in.o(.data)
    recv_flags                               0x20000181   Data           1  tcp_in.o(.data)
    tcplen                                   0x20000182   Data           2  tcp_in.o(.data)
    tcphdr                                   0x20000184   Data           4  tcp_in.o(.data)
    iphdr                                    0x20000188   Data           4  tcp_in.o(.data)
    seqno                                    0x2000018c   Data           4  tcp_in.o(.data)
    ackno                                    0x20000190   Data           4  tcp_in.o(.data)
    recv_data                                0x20000194   Data           4  tcp_in.o(.data)
    .data                                    0x2000019c   Section        4  udp.o(.data)
    .data                                    0x200001a0   Section       12  ip.o(.data)
    ip_id                                    0x200001a0   Data           2  ip.o(.data)
    .data                                    0x200001ac   Section        1  etharp.o(.data)
    etharp_cached_entry                      0x200001ac   Data           1  etharp.o(.data)
    .data                                    0x200001b0   Section       12  ethernetif.o(.data)
    s_pxNetIf                                0x200001b0   Data           4  ethernetif.o(.data)
    xTxSemaphore                             0x200001b8   Data           4  ethernetif.o(.data)
    .data                                    0x200001bc   Section        2  sys_arch.o(.data)
    s_nextthread                             0x200001bc   Data           2  sys_arch.o(.data)
    .data                                    0x200001c0   Section        8  stm32f4xx_uartstdio.o(.data)
    bLastWasCR                               0x200001c0   Data           1  stm32f4xx_uartstdio.o(.data)
    g_ulBase                                 0x200001c4   Data           4  stm32f4xx_uartstdio.o(.data)
    .data                                    0x200001c8   Section        4  stm32f4xx_uartstdio.o(.data)
    .data                                    0x200001cc   Section       48  stm32f4_discovery.o(.data)
    .data                                    0x200001fc   Section       12  stm32f4x7_eth.o(.data)
    .data                                    0x20000208   Section       16  stm32f4xx_rcc.o(.data)
    APBAHBPrescTable                         0x20000208   Data          16  stm32f4xx_rcc.o(.data)
    .data                                    0x20000218   Section       60  tasks.o(.data)
    uxDeletedTasksWaitingCleanUp             0x2000021c   Data           4  tasks.o(.data)
    uxCurrentNumberOfTasks                   0x20000220   Data           4  tasks.o(.data)
    xTickCount                               0x20000224   Data           4  tasks.o(.data)
    uxTopReadyPriority                       0x20000228   Data           4  tasks.o(.data)
    xSchedulerRunning                        0x2000022c   Data           4  tasks.o(.data)
    uxPendedTicks                            0x20000230   Data           4  tasks.o(.data)
    xYieldPending                            0x20000234   Data           4  tasks.o(.data)
    xNumOfOverflows                          0x20000238   Data           4  tasks.o(.data)
    uxTaskNumber                             0x2000023c   Data           4  tasks.o(.data)
    xNextTaskUnblockTime                     0x20000240   Data           4  tasks.o(.data)
    xIdleTaskHandle                          0x20000244   Data           4  tasks.o(.data)
    uxSchedulerSuspended                     0x20000248   Data           4  tasks.o(.data)
    pxDelayedTaskList                        0x2000024c   Data           4  tasks.o(.data)
    pxOverflowDelayedTaskList                0x20000250   Data           4  tasks.o(.data)
    .data                                    0x20000254   Section       12  port.o(.data)
    ucMaxSysCallPriority                     0x20000254   Data           1  port.o(.data)
    uxCriticalNesting                        0x20000258   Data           4  port.o(.data)
    ulMaxPRIGROUPValue                       0x2000025c   Data           4  port.o(.data)
    .data                                    0x20000260   Section       24  heap_2.o(.data)
    xFreeBytesRemaining                      0x20000260   Data           4  heap_2.o(.data)
    xHeapHasBeenInitialised                  0x20000264   Data           4  heap_2.o(.data)
    xStart                                   0x20000268   Data           8  heap_2.o(.data)
    xEnd                                     0x20000270   Data           8  heap_2.o(.data)
    .data                                    0x20000278   Section       32  tcp_mb.o(.data)
    eMBState                                 0x20000278   Data           1  tcp_mb.o(.data)
    ucRcvAddress                             0x20000279   Data           1  tcp_mb.o(.data)
    ucFunctionCode                           0x2000027a   Data           1  tcp_mb.o(.data)
    eException                               0x2000027b   Data           1  tcp_mb.o(.data)
    ucMBAddress                              0x2000027c   Data           1  tcp_mb.o(.data)
    eMBCurrentMode                           0x2000027d   Data           1  tcp_mb.o(.data)
    usLength                                 0x2000027e   Data           2  tcp_mb.o(.data)
    ucMBFrame                                0x20000280   Data           4  tcp_mb.o(.data)
    peMBFrameSendCur                         0x20000284   Data           4  tcp_mb.o(.data)
    pvMBFrameStartCur                        0x20000288   Data           4  tcp_mb.o(.data)
    pvMBFrameStopCur                         0x2000028c   Data           4  tcp_mb.o(.data)
    peMBFrameReceiveCur                      0x20000290   Data           4  tcp_mb.o(.data)
    pvMBFrameCloseCur                        0x20000294   Data           4  tcp_mb.o(.data)
    .data                                    0x20000298   Section       12  port_tcp.o(.data)
    usTCPBufPos                              0x20000298   Data           2  port_tcp.o(.data)
    pxPCBListen                              0x2000029c   Data           4  port_tcp.o(.data)
    pxPCBClient                              0x200002a0   Data           4  port_tcp.o(.data)
    .data                                    0x200002a4   Section        2  portevent_tcp.o(.data)
    eQueuedEvent                             0x200002a4   Data           1  portevent_tcp.o(.data)
    xEventInQueue                            0x200002a5   Data           1  portevent_tcp.o(.data)
    .data                                    0x200002a8   Section       16  portother_tcp.o(.data)
    arszLevel2Str                            0x200002a8   Data          16  portother_tcp.o(.data)
    .data                                    0x200002b8   Section        2  mbfuncother.o(.data)
    usMBSlaveIDLen                           0x200002b8   Data           2  mbfuncother.o(.data)
    .data                                    0x200002bc   Section        4  errno.o(.data)
    _errno                                   0x200002bc   Data           4  errno.o(.data)
    .bss                                     0x200002c0   Section      268  main.o(.bss)
    .bss                                     0x200003cc   Section       60  netconf.o(.bss)
    .bss                                     0x20000408   Section      240  fs.o(.bss)
    .bss                                     0x200004f8   Section       32  miscellaneous.o(.bss)
    buf                                      0x200004f8   Data          32  miscellaneous.o(.bss)
    .bss                                     0x20000518   Section       12  mqttclienttask.o(.bss)
    .bss                                     0x20000524   Section     2052  rs485rtu_m.o(.bss)
    ucMasterRTUSndBuf                        0x20000524   Data        1012  rs485rtu_m.o(.bss)
    ucMasterRTURcvBuf                        0x20000918   Data        1024  rs485rtu_m.o(.bss)
    pucMasterSndBufferCur                    0x20000d18   Data          16  rs485rtu_m.o(.bss)
    .bss                                     0x20000d28   Section       16  porttimer_m.o(.bss)
    TimerExpired                             0x20000d28   Data          16  porttimer_m.o(.bss)
    .bss                                     0x20000d38   Section       16  portevent_m.o(.bss)
    xMasterRunRes                            0x20000d38   Data          16  portevent_m.o(.bss)
    .bss                                     0x20000d48   Section       80  sockets.o(.bss)
    sockets                                  0x20000d48   Data          80  sockets.o(.bss)
    .bss                                     0x20000d98   Section     5140  mem.o(.bss)
    ram_heap                                 0x20000d98   Data        5140  mem.o(.bss)
    .bss                                     0x200021ac   Section    15159  memp.o(.bss)
    memp_tab                                 0x200021ac   Data          48  memp.o(.bss)
    memp_memory                              0x200021dc   Data       15111  memp.o(.bss)
    .bss                                     0x20005ce4   Section       20  tcp_in.o(.bss)
    inseg                                    0x20005ce4   Data          20  tcp_in.o(.bss)
    .bss                                     0x20005cf8   Section       16  inet.o(.bss)
    str                                      0x20005cf8   Data          16  inet.o(.bss)
    .bss                                     0x20005d08   Section      160  etharp.o(.bss)
    arp_table                                0x20005d08   Data         160  etharp.o(.bss)
    .bss                                     0x20005da8   Section       48  sys_arch.o(.bss)
    s_timeoutlist                            0x20005da8   Data          48  sys_arch.o(.bss)
    .bss                                     0x20005dd8   Section      160  stm32f4x7_eth.o(.bss)
    .bss                                     0x20005e78   Section      160  stm32f4x7_eth.o(.bss)
    .bss                                     0x20005f18   Section     7620  stm32f4x7_eth.o(.bss)
    .bss                                     0x20007cdc   Section     7620  stm32f4x7_eth.o(.bss)
    .bss                                     0x20009aa0   Section       12  stm32f4x7_eth.o(.bss)
    .bss                                     0x20009aac   Section       64  queue.o(.bss)
    .bss                                     0x20009aec   Section      400  tasks.o(.bss)
    pxReadyTasksLists                        0x20009aec   Data         300  tasks.o(.bss)
    xDelayedTaskList1                        0x20009c18   Data          20  tasks.o(.bss)
    xDelayedTaskList2                        0x20009c2c   Data          20  tasks.o(.bss)
    xPendingReadyList                        0x20009c40   Data          20  tasks.o(.bss)
    xTasksWaitingTermination                 0x20009c54   Data          20  tasks.o(.bss)
    xSuspendedTaskList                       0x20009c68   Data          20  tasks.o(.bss)
    .bss                                     0x20009c7c   Section    81920  heap_2.o(.bss)
    ucHeap                                   0x20009c7c   Data       81920  heap_2.o(.bss)
    .bss                                     0x2001dc7c   Section      128  tcp_mb.o(.bss)
    xFuncHandlers                            0x2001dc7c   Data         128  tcp_mb.o(.bss)
    .bss                                     0x2001dcfc   Section      263  port_tcp.o(.bss)
    aucTCPBuf                                0x2001dcfc   Data         263  port_tcp.o(.bss)
    .bss                                     0x2001de03   Section      512  portother_tcp.o(.bss)
    arcBuffer                                0x2001de03   Data         512  portother_tcp.o(.bss)
    .bss                                     0x2001e003   Section       32  mbfuncother.o(.bss)
    ucMBSlaveID                              0x2001e003   Data          32  mbfuncother.o(.bss)
    STACK                                    0x2001e028   Section      512  startup_stm32f4xx.o(STACK)

    Global Symbols

    Symbol Name                              Value     Ov Type        Size  Object(Section)

    BuildAttributes$$THM_ISAv4$E$P$D$K$B$S$7EM$VFPi3$EXTD16$VFPS$VFMA$PE$A:L22UL41UL21$X:L11$S22US41US21$IEEE1$IW$USESV6$~STKCKD$USESV7$~SHL$OSPACE$ROPI$EBA8$MICROLIB$REQ8$PRES8$EABIv2 0x00000000   Number         0  anon$$obj.o ABSOLUTE
    __ARM_use_no_argv                        0x00000000   Number         0  main.o ABSOLUTE
    _printf_a                                0x00000000   Number         0  stubs.o ABSOLUTE
    _printf_c                                0x00000000   Number         0  stubs.o ABSOLUTE
    _printf_charcount                        0x00000000   Number         0  stubs.o ABSOLUTE
    _printf_d                                0x00000000   Number         0  stubs.o ABSOLUTE
    _printf_e                                0x00000000   Number         0  stubs.o ABSOLUTE
    _printf_f                                0x00000000   Number         0  stubs.o ABSOLUTE
    _printf_flags                            0x00000000   Number         0  stubs.o ABSOLUTE
    _printf_fp_dec                           0x00000000   Number         0  stubs.o ABSOLUTE
    _printf_fp_hex                           0x00000000   Number         0  stubs.o ABSOLUTE
    _printf_g                                0x00000000   Number         0  stubs.o ABSOLUTE
    _printf_i                                0x00000000   Number         0  stubs.o ABSOLUTE
    _printf_int_dec                          0x00000000   Number         0  stubs.o ABSOLUTE
    _printf_l                                0x00000000   Number         0  stubs.o ABSOLUTE
    _printf_lc                               0x00000000   Number         0  stubs.o ABSOLUTE
    _printf_ll                               0x00000000   Number         0  stubs.o ABSOLUTE
    _printf_lld                              0x00000000   Number         0  stubs.o ABSOLUTE
    _printf_lli                              0x00000000   Number         0  stubs.o ABSOLUTE
    _printf_llo                              0x00000000   Number         0  stubs.o ABSOLUTE
    _printf_llu                              0x00000000   Number         0  stubs.o ABSOLUTE
    _printf_llx                              0x00000000   Number         0  stubs.o ABSOLUTE
    _printf_longlong_dec                     0x00000000   Number         0  stubs.o ABSOLUTE
    _printf_longlong_hex                     0x00000000   Number         0  stubs.o ABSOLUTE
    _printf_longlong_oct                     0x00000000   Number         0  stubs.o ABSOLUTE
    _printf_ls                               0x00000000   Number         0  stubs.o ABSOLUTE
    _printf_mbtowc                           0x00000000   Number         0  stubs.o ABSOLUTE
    _printf_n                                0x00000000   Number         0  stubs.o ABSOLUTE
    _printf_o                                0x00000000   Number         0  stubs.o ABSOLUTE
    _printf_p                                0x00000000   Number         0  stubs.o ABSOLUTE
    _printf_percent                          0x00000000   Number         0  stubs.o ABSOLUTE
    _printf_pre_padding                      0x00000000   Number         0  stubs.o ABSOLUTE
    _printf_return_value                     0x00000000   Number         0  stubs.o ABSOLUTE
    _printf_s                                0x00000000   Number         0  stubs.o ABSOLUTE
    _printf_sizespec                         0x00000000   Number         0  stubs.o ABSOLUTE
    _printf_str                              0x00000000   Number         0  stubs.o ABSOLUTE
    _printf_truncate_signed                  0x00000000   Number         0  stubs.o ABSOLUTE
    _printf_truncate_unsigned                0x00000000   Number         0  stubs.o ABSOLUTE
    _printf_u                                0x00000000   Number         0  stubs.o ABSOLUTE
    _printf_wc                               0x00000000   Number         0  stubs.o ABSOLUTE
    _printf_wctomb                           0x00000000   Number         0  stubs.o ABSOLUTE
    _printf_widthprec                        0x00000000   Number         0  stubs.o ABSOLUTE
    _printf_x                                0x00000000   Number         0  stubs.o ABSOLUTE
    __cpp_initialize__aeabi_                  - Undefined Weak Reference
    __cxa_finalize                            - Undefined Weak Reference
    _clock_init                               - Undefined Weak Reference
    _microlib_exit                            - Undefined Weak Reference
    __Vectors_Size                           0x00000188   Number         0  startup_stm32f4xx.o ABSOLUTE
    __Vectors                                0x08000000   Data           4  startup_stm32f4xx.o(RESET)
    __Vectors_End                            0x08000188   Data           0  startup_stm32f4xx.o(RESET)
    __main                                   0x08000189   Thumb Code     0  entry.o(.ARM.Collect$$$$00000000)
    _main_stk                                0x08000189   Thumb Code     0  entry2.o(.ARM.Collect$$$$00000001)
    _main_scatterload                        0x0800018d   Thumb Code     0  entry5.o(.ARM.Collect$$$$00000004)
    __main_after_scatterload                 0x08000191   Thumb Code     0  entry5.o(.ARM.Collect$$$$00000004)
    _main_clock                              0x08000191   Thumb Code     0  entry7b.o(.ARM.Collect$$$$00000008)
    _main_cpp_init                           0x08000191   Thumb Code     0  entry8b.o(.ARM.Collect$$$$0000000A)
    _main_init                               0x08000191   Thumb Code     0  entry9a.o(.ARM.Collect$$$$0000000B)
    __rt_final_cpp                           0x08000199   Thumb Code     0  entry10a.o(.ARM.Collect$$$$0000000D)
    __rt_final_exit                          0x08000199   Thumb Code     0  entry11a.o(.ARM.Collect$$$$0000000F)
    vPortSVCHandler                          0x0800019d   Thumb Code    28  port.o(.emb_text)
    __asm___6_port_c_39a90d8d__prvStartFirstTask 0x080001bd   Thumb Code    36  port.o(.emb_text)
    __asm___6_port_c_39a90d8d__prvEnableVFP  0x080001e5   Thumb Code    16  port.o(.emb_text)
    xPortPendSVHandler                       0x080001f9   Thumb Code    88  port.o(.emb_text)
    vPortGetIPSR                             0x08000255   Thumb Code     6  port.o(.emb_text)
    modbus_test                              0x0800025d   Thumb Code    26  main.o(.text)
    Factory_reset                            0x08000277   Thumb Code   178  main.o(.text)
    ControlTask                              0x08000329   Thumb Code  1636  main.o(.text)
    Port_read_config                         0x0800098d   Thumb Code    40  main.o(.text)
    RTC_set_time                             0x080009b5   Thumb Code    80  main.o(.text)
    RTCUserInit                              0x08000a05   Thumb Code   124  main.o(.text)
    main                                     0x08000a81   Thumb Code   296  main.o(.text)
    Bt_debounce                              0x08000ba9   Thumb Code    48  main.o(.text)
    vApplicationMallocFailedHook             0x08000bd9   Thumb Code    28  main.o(.text)
    vApplicationStackOverflowHook            0x08000bf5   Thumb Code    22  main.o(.text)
    SystemInit                               0x08000d3f   Thumb Code    74  system_stm32f4xx.o(.text)
    SystemCoreClockUpdate                    0x08000d89   Thumb Code   108  system_stm32f4xx.o(.text)
    NMI_Handler                              0x08000e1d   Thumb Code     2  stm32f4xx_it.o(.text)
    HardFault_Handler                        0x08000e1f   Thumb Code     2  stm32f4xx_it.o(.text)
    MemManage_Handler                        0x08000e21   Thumb Code     2  stm32f4xx_it.o(.text)
    BusFault_Handler                         0x08000e23   Thumb Code     2  stm32f4xx_it.o(.text)
    UsageFault_Handler                       0x08000e25   Thumb Code     2  stm32f4xx_it.o(.text)
    SVC_Handler                              0x08000e27   Thumb Code     2  stm32f4xx_it.o(.text)
    DebugMon_Handler                         0x08000e29   Thumb Code     2  stm32f4xx_it.o(.text)
    PendSV_Handler                           0x08000e2b   Thumb Code     2  stm32f4xx_it.o(.text)
    SysTick_Handler                          0x08000e2d   Thumb Code     4  stm32f4xx_it.o(.text)
    ETH_IRQHandler                           0x08000e31   Thumb Code    64  stm32f4xx_it.o(.text)
    TIM3_IRQHandler                          0x08000e71   Thumb Code    24  stm32f4xx_it.o(.text)
    LwIP_Init                                0x08000e95   Thumb Code   136  netconf.o(.text)
    LwIP_DHCP_task                           0x08000f1d   Thumb Code   246  netconf.o(.text)
    ETH_Configuration                        0x08001039   Thumb Code    96  stm32f4x7_eth_bsp.o(.text)
    ETH_BSP_Config                           0x080011a1   Thumb Code    76  stm32f4x7_eth_bsp.o(.text)
    ETH_ConfigTask                           0x080011ed   Thumb Code   230  stm32f4x7_eth_bsp.o(.text)
    ETH_Disable                              0x080012d3   Thumb Code    18  stm32f4x7_eth_bsp.o(.text)
    ETH_Enable                               0x080012e5   Thumb Code     8  stm32f4x7_eth_bsp.o(.text)
    fs_open                                  0x08001329   Thumb Code   104  fs.o(.text)
    fs_close                                 0x08001391   Thumb Code     4  fs.o(.text)
    fs_read                                  0x08001395   Thumb Code    52  fs.o(.text)
    fs_bytes_left                            0x080013c9   Thumb Code     8  fs.o(.text)
    http_server_serve                        0x08001401   Thumb Code  3486  httpserver-socket.o(.text)
    http_server_socket_init                  0x08002299   Thumb Code    20  httpserver-socket.o(.text)
    HexIntToChar                             0x08002339   Thumb Code    96  miscellaneous.o(.text)
    DecIntToChar                             0x08002399   Thumb Code    66  miscellaneous.o(.text)
    HexToString                              0x080023db   Thumb Code    62  miscellaneous.o(.text)
    itoa                                     0x08002419   Thumb Code    48  miscellaneous.o(.text)
    Uint8ToUint16                            0x08002449   Thumb Code     4  miscellaneous.o(.text)
    Uint16ToUint8                            0x0800244d   Thumb Code     8  miscellaneous.o(.text)
    Uint8ToUint32                            0x08002455   Thumb Code    12  miscellaneous.o(.text)
    Uint32ToUint8                            0x08002461   Thumb Code    16  miscellaneous.o(.text)
    Flash_Write_Information                  0x08002489   Thumb Code   276  api_server.o(.text)
    Host_read_flash                          0x0800259d   Thumb Code   114  api_server.o(.text)
    User_read_flash                          0x0800260f   Thumb Code    60  api_server.o(.text)
    Lan_read_flash                           0x0800264b   Thumb Code    34  api_server.o(.text)
    Port_read_flash                          0x0800266d   Thumb Code    58  api_server.o(.text)
    Api_lan_config                           0x080026a7   Thumb Code   368  api_server.o(.text)
    Web_lan_config                           0x08002817   Thumb Code   490  api_server.o(.text)
    Api_host_config                          0x08002a01   Thumb Code   244  api_server.o(.text)
    Web_host_config                          0x08002af5   Thumb Code   296  api_server.o(.text)
    port_config                              0x08002c1d   Thumb Code   498  api_server.o(.text)
    username_password_config                 0x08002e0f   Thumb Code   176  api_server.o(.text)
    set_time                                 0x08002ebf   Thumb Code   298  api_server.o(.text)
    ApiSystemReboot                          0x08002fe9   Thumb Code     8  api_server.o(.text)
    ApiProcessComplete                       0x08002ff1   Thumb Code    72  api_server.o(.text)
    Get_CTPort                               0x08003039   Thumb Code    30  api_server.o(.text)
    Port_driver                              0x08003057   Thumb Code    50  api_server.o(.text)
    messageArrived                           0x0800310d   Thumb Code   246  mqttclienttask.o(.text)
    vStartMQTTTasks                          0x080039c7   Thumb Code    22  mqttclienttask.o(.text)
    GPIO_ADC_Configuration                   0x08003b15   Thumb Code    30  key_scan.o(.text)
    ADC_Configuration                        0x08003b33   Thumb Code    72  key_scan.o(.text)
    ADC_read                                 0x08003b7b   Thumb Code    44  key_scan.o(.text)
    ADCChannelGet                            0x08003ba7   Thumb Code    14  key_scan.o(.text)
    Key_Configuration                        0x08003bb5   Thumb Code    40  key_scan.o(.text)
    Key_Get                                  0x08003bdd   Thumb Code     8  key_scan.o(.text)
    vStartKeyScanTasks                       0x08003c6b   Thumb Code    20  keyscan_task.o(.text)
    vStartRS485busMasterTasks                0x08003d2b   Thumb Code    20  rs485bus_task_m.o(.text)
    vStartTCPMBTasks                         0x08003dbf   Thumb Code    20  tcpmbbus_task.o(.text)
    MQTTClientInit                           0x08003e6d   Thumb Code    74  mqttclient.o(.text)
    deliverMessage                           0x08003f77   Thumb Code   176  mqttclient.o(.text)
    keepalive                                0x08004027   Thumb Code    88  mqttclient.o(.text)
    MQTTCleanSession                         0x0800407f   Thumb Code    18  mqttclient.o(.text)
    MQTTCloseSession                         0x08004091   Thumb Code    16  mqttclient.o(.text)
    cycle                                    0x080040a1   Thumb Code   284  mqttclient.o(.text)
    MQTTYield                                0x080041bd   Thumb Code    54  mqttclient.o(.text)
    MQTTIsConnected                          0x080041f3   Thumb Code     4  mqttclient.o(.text)
    MQTTRun                                  0x080041f7   Thumb Code    32  mqttclient.o(.text)
    waitfor                                  0x08004217   Thumb Code    44  mqttclient.o(.text)
    MQTTConnectWithResults                   0x08004243   Thumb Code   150  mqttclient.o(.text)
    MQTTConnect                              0x080042d9   Thumb Code    10  mqttclient.o(.text)
    MQTTSetMessageHandler                    0x080042e3   Thumb Code   104  mqttclient.o(.text)
    MQTTSubscribeWithResults                 0x0800434b   Thumb Code   172  mqttclient.o(.text)
    MQTTSubscribe                            0x080043f7   Thumb Code    12  mqttclient.o(.text)
    MQTTUnsubscribe                          0x08004403   Thumb Code   144  mqttclient.o(.text)
    MQTTPublish                              0x08004493   Thumb Code   192  mqttclient.o(.text)
    MQTTDisconnect                           0x08004553   Thumb Code    54  mqttclient.o(.text)
    ThreadStart                              0x080045a5   Thumb Code    40  mqttfreertos.o(.text)
    MutexInit                                0x080045cd   Thumb Code    14  mqttfreertos.o(.text)
    MutexLock                                0x080045db   Thumb Code    10  mqttfreertos.o(.text)
    MutexUnlock                              0x080045e5   Thumb Code    12  mqttfreertos.o(.text)
    TimerCountdownMS                         0x080045f1   Thumb Code     6  mqttfreertos.o(.text)
    TimerCountdown                           0x080045f7   Thumb Code     8  mqttfreertos.o(.text)
    TimerLeftMS                              0x080045ff   Thumb Code    16  mqttfreertos.o(.text)
    TimerIsExpired                           0x0800460f   Thumb Code    18  mqttfreertos.o(.text)
    TimerInit                                0x08004621   Thumb Code    10  mqttfreertos.o(.text)
    FreeRTOS_read                            0x0800462b   Thumb Code    98  mqttfreertos.o(.text)
    FreeRTOS_write                           0x0800468d   Thumb Code    90  mqttfreertos.o(.text)
    FreeRTOS_disconnect                      0x080046e7   Thumb Code     6  mqttfreertos.o(.text)
    NetworkInit                              0x080046ed   Thumb Code    24  mqttfreertos.o(.text)
    NetworkConnect                           0x08004705   Thumb Code    68  mqttfreertos.o(.text)
    MQTTSerialize_connectLength              0x08004755   Thumb Code   118  mqttconnectclient.o(.text)
    MQTTSerialize_connect                    0x080047cb   Thumb Code   262  mqttconnectclient.o(.text)
    MQTTDeserialize_connack                  0x080048d1   Thumb Code    92  mqttconnectclient.o(.text)
    MQTTSerialize_zero                       0x0800492d   Thumb Code    50  mqttconnectclient.o(.text)
    MQTTSerialize_disconnect                 0x0800495f   Thumb Code     4  mqttconnectclient.o(.text)
    MQTTSerialize_pingreq                    0x08004963   Thumb Code     4  mqttconnectclient.o(.text)
    MQTTDeserialize_publish                  0x08004979   Thumb Code   140  mqttdeserializepublish.o(.text)
    MQTTDeserialize_ack                      0x08004a05   Thumb Code    72  mqttdeserializepublish.o(.text)
    MQTTPacket_encode                        0x08004a4d   Thumb Code    40  mqttpacket.o(.text)
    MQTTPacket_decode                        0x08004a75   Thumb Code    54  mqttpacket.o(.text)
    MQTTPacket_len                           0x08004aab   Thumb Code    34  mqttpacket.o(.text)
    bufchar                                  0x08004acd   Thumb Code    28  mqttpacket.o(.text)
    MQTTPacket_decodeBuf                     0x08004ae9   Thumb Code    10  mqttpacket.o(.text)
    readInt                                  0x08004af3   Thumb Code    18  mqttpacket.o(.text)
    readChar                                 0x08004b05   Thumb Code    12  mqttpacket.o(.text)
    writeChar                                0x08004b11   Thumb Code    12  mqttpacket.o(.text)
    writeInt                                 0x08004b1d   Thumb Code    30  mqttpacket.o(.text)
    writeCString                             0x08004b3b   Thumb Code    40  mqttpacket.o(.text)
    getLenStringLen                          0x08004b63   Thumb Code    10  mqttpacket.o(.text)
    writeMQTTString                          0x08004b6d   Thumb Code    50  mqttpacket.o(.text)
    readMQTTLenString                        0x08004b9f   Thumb Code    52  mqttpacket.o(.text)
    MQTTstrlen                               0x08004bd3   Thumb Code    14  mqttpacket.o(.text)
    MQTTPacket_equals                        0x08004be1   Thumb Code    54  mqttpacket.o(.text)
    MQTTPacket_read                          0x08004c17   Thumb Code    78  mqttpacket.o(.text)
    MQTTPacket_readnb                        0x08004c65   Thumb Code   220  mqttpacket.o(.text)
    MQTTSerialize_publishLength              0x08004d49   Thumb Code    30  mqttserializepublish.o(.text)
    MQTTSerialize_publish                    0x08004d67   Thumb Code   134  mqttserializepublish.o(.text)
    MQTTSerialize_ack                        0x08004ded   Thumb Code    72  mqttserializepublish.o(.text)
    MQTTSerialize_puback                     0x08004e35   Thumb Code    14  mqttserializepublish.o(.text)
    MQTTSerialize_pubrel                     0x08004e43   Thumb Code    14  mqttserializepublish.o(.text)
    MQTTSerialize_pubcomp                    0x08004e51   Thumb Code    14  mqttserializepublish.o(.text)
    MQTTSerialize_subscribeLength            0x08004e5f   Thumb Code    44  mqttsubscribeclient.o(.text)
    MQTTSerialize_subscribe                  0x08004e8b   Thumb Code   140  mqttsubscribeclient.o(.text)
    MQTTDeserialize_suback                   0x08004f17   Thumb Code   124  mqttsubscribeclient.o(.text)
    MQTTSerialize_unsubscribeLength          0x08004f93   Thumb Code    44  mqttunsubscribeclient.o(.text)
    MQTTSerialize_unsubscribe                0x08004fbf   Thumb Code   124  mqttunsubscribeclient.o(.text)
    MQTTDeserialize_unsuback                 0x0800503b   Thumb Code    38  mqttunsubscribeclient.o(.text)
    usRS485CRC16                             0x08005061   Thumb Code    38  rs485crc.o(.text)
    eRS485MasterInit                         0x0800508d   Thumb Code   100  rs485bus_m.o(.text)
    eRS485MasterClose                        0x080050f1   Thumb Code    32  rs485bus_m.o(.text)
    eRS485MasterEnable                       0x08005111   Thumb Code    28  rs485bus_m.o(.text)
    eRS485MasterDisable                      0x0800512d   Thumb Code    32  rs485bus_m.o(.text)
    eRS485MasterIsEstablished                0x0800514d   Thumb Code    16  rs485bus_m.o(.text)
    eMasterGetErrorType                      0x0800515d   Thumb Code     8  rs485bus_m.o(.text)
    ucRS485MasterGetDestAddress              0x08005165   Thumb Code     8  rs485bus_m.o(.text)
    vMasterSetErrorType                      0x0800516d   Thumb Code     8  rs485bus_m.o(.text)
    vRS485MasterSetCBRunInMasterMode         0x08005175   Thumb Code     8  rs485bus_m.o(.text)
    eRS485MasterPoll                         0x0800517d   Thumb Code   360  rs485bus_m.o(.text)
    xRS485MasterGetCBRunInMasterMode         0x080052e5   Thumb Code     8  rs485bus_m.o(.text)
    vRS485MasterSetDestAddress               0x080052ed   Thumb Code     8  rs485bus_m.o(.text)
    eRS485MasterRTUInit                      0x08005335   Thumb Code    80  rs485rtu_m.o(.text)
    eRS485MasterRTUStart                     0x08005385   Thumb Code    40  rs485rtu_m.o(.text)
    eRS485MasterRTUStop                      0x080053ad   Thumb Code    32  rs485rtu_m.o(.text)
    eRS485MasterRTUReceive                   0x080053cd   Thumb Code    84  rs485rtu_m.o(.text)
    eRS485MasterRTUSend                      0x08005421   Thumb Code   150  rs485rtu_m.o(.text)
    xRS485MasterRTUReceiveFSM                0x080054b7   Thumb Code   132  rs485rtu_m.o(.text)
    xRS485MasterRTUTransmitFSM               0x0800553b   Thumb Code   104  rs485rtu_m.o(.text)
    xRS485MasterRTUTimerExpired              0x080055a3   Thumb Code   134  rs485rtu_m.o(.text)
    vRS485MasterGetRTUSndBuf                 0x08005629   Thumb Code    16  rs485rtu_m.o(.text)
    vRS485MasterGetPDUSndBuf                 0x08005639   Thumb Code    18  rs485rtu_m.o(.text)
    vRS485MasterSetPDUSndLength              0x0800564b   Thumb Code    10  rs485rtu_m.o(.text)
    usRS485MasterGetPDUSndLength             0x08005655   Thumb Code    10  rs485rtu_m.o(.text)
    vMasterSetCurTimerMode                   0x0800565f   Thumb Code     8  rs485rtu_m.o(.text)
    eRS485MasterReqPeriodicPing              0x0800567d   Thumb Code    62  rs485funcperiodicping_m.o(.text)
    eRS485MasterFuncPeriodicPing             0x080056bb   Thumb Code    24  rs485funcperiodicping_m.o(.text)
    UartPortGet                              0x08005707   Thumb Code    30  portserial_m.o(.text)
    IRQPortGet                               0x08005725   Thumb Code    30  portserial_m.o(.text)
    RS485_RDE_GPIO_Configuration             0x08005743   Thumb Code   132  portserial_m.o(.text)
    xMasterPortSerialInit                    0x080057c7   Thumb Code   234  portserial_m.o(.text)
    RS485_RDE_DIR                            0x080058b1   Thumb Code    96  portserial_m.o(.text)
    vMasterPortSerialEnable                  0x08005911   Thumb Code    76  portserial_m.o(.text)
    vMasterPortClose                         0x0800595d   Thumb Code    48  portserial_m.o(.text)
    xMasterPortSerialPutByte                 0x0800598d   Thumb Code    32  portserial_m.o(.text)
    xMasterPortSerialGetByte                 0x080059ad   Thumb Code    18  portserial_m.o(.text)
    USART2_IRQHandler                        0x080059bf   Thumb Code    40  portserial_m.o(.text)
    USART3_IRQHandler                        0x080059e7   Thumb Code    28  portserial_m.o(.text)
    UART4_IRQHandler                         0x08005a03   Thumb Code    28  portserial_m.o(.text)
    USART6_IRQHandler                        0x08005a1f   Thumb Code    28  portserial_m.o(.text)
    xMasterPortTimersInit                    0x08005a75   Thumb Code   186  porttimer_m.o(.text)
    vMasterPortTimersT35Enable               0x08005b2f   Thumb Code    46  porttimer_m.o(.text)
    vMasterPortTimersConvertDelayEnable      0x08005b5d   Thumb Code    54  porttimer_m.o(.text)
    vMasterPortTimersRespondTimeoutEnable    0x08005b93   Thumb Code    84  porttimer_m.o(.text)
    vMasterPortTimersDisable                 0x08005be7   Thumb Code    32  porttimer_m.o(.text)
    TIM2_IRQHandler                          0x08005c07   Thumb Code   102  porttimer_m.o(.text)
    eMasterResponseChecksCB                  0x08005c81   Thumb Code    40  user_rs485_app_m.o(.text)
    eMasterFuncPeriodicPingCB                0x08005ca9   Thumb Code    40  user_rs485_app_m.o(.text)
    eMasterFuncNFCDetectCB                   0x08005cd1   Thumb Code    40  user_rs485_app_m.o(.text)
    eMasterFuncErrorDetectCB                 0x08005cf9   Thumb Code     4  user_rs485_app_m.o(.text)
    eRS485MasterRegHoldingCB                 0x08005cfd   Thumb Code    36  user_rs485_app_m.o(.text)
    xMasterPortEventInit                     0x08005d25   Thumb Code    24  portevent_m.o(.text)
    xMasterPortEventPost                     0x08005d3d   Thumb Code    32  portevent_m.o(.text)
    xMasterPortEventGet                      0x08005d5d   Thumb Code    88  portevent_m.o(.text)
    vMasterOsResInit                         0x08005db5   Thumb Code    36  portevent_m.o(.text)
    xMasterRunResTake                        0x08005dd9   Thumb Code    20  portevent_m.o(.text)
    vMasterRunResRelease                     0x08005ded   Thumb Code    16  portevent_m.o(.text)
    vMasterErrorCBRespondTimeout             0x08005dfd   Thumb Code     4  portevent_m.o(.text)
    vMasterErrorCBReceiveData                0x08005e01   Thumb Code     4  portevent_m.o(.text)
    vMasterErrorCBExecuteFunction            0x08005e05   Thumb Code     4  portevent_m.o(.text)
    vMasterCBRequestScuuess                  0x08005e09   Thumb Code     4  portevent_m.o(.text)
    eMasterWaitRequestFinish                 0x08005e0d   Thumb Code    78  portevent_m.o(.text)
    eMBMasterReqWriteHoldingRegister         0x08005e65   Thumb Code   102  mbfuncholding_m.o(.text)
    eRS485MasterFuncWriteHoldingRegister     0x08005ecb   Thumb Code    66  mbfuncholding_m.o(.text)
    eMBMasterReqReadHoldingRegister          0x08005f0d   Thumb Code    88  mbfuncholding_m.o(.text)
    eMBMasterFuncReadHoldingRegister         0x08005f65   Thumb Code    96  mbfuncholding_m.o(.text)
    netconn_new_with_proto_and_callback      0x08006055   Thumb Code    66  api_lib.o(.text)
    netconn_delete                           0x08006097   Thumb Code    36  api_lib.o(.text)
    netconn_getaddr                          0x080060bb   Thumb Code    46  api_lib.o(.text)
    netconn_bind                             0x080060e9   Thumb Code    38  api_lib.o(.text)
    netconn_connect                          0x0800610f   Thumb Code    38  api_lib.o(.text)
    netconn_disconnect                       0x08006135   Thumb Code    32  api_lib.o(.text)
    netconn_listen_with_backlog              0x08006155   Thumb Code    36  api_lib.o(.text)
    netconn_accept                           0x08006179   Thumb Code    68  api_lib.o(.text)
    netconn_recv                             0x080061bd   Thumb Code   230  api_lib.o(.text)
    netconn_send                             0x080062a3   Thumb Code    34  api_lib.o(.text)
    netconn_sendto                           0x080062c5   Thumb Code    14  api_lib.o(.text)
    netconn_write                            0x080062d3   Thumb Code    52  api_lib.o(.text)
    netconn_close                            0x08006307   Thumb Code    32  api_lib.o(.text)
    netconn_free                             0x080066b3   Thumb Code   104  api_msg.o(.text)
    netconn_alloc                            0x0800671b   Thumb Code   116  api_msg.o(.text)
    do_newconn                               0x080067e5   Thumb Code    28  api_msg.o(.text)
    do_delconn                               0x08006801   Thumb Code   102  api_msg.o(.text)
    do_bind                                  0x08006867   Thumb Code    92  api_msg.o(.text)
    do_connect                               0x080068ef   Thumb Code   102  api_msg.o(.text)
    do_disconnect                            0x08006955   Thumb Code    34  api_msg.o(.text)
    do_listen                                0x08006977   Thumb Code   170  api_msg.o(.text)
    do_send                                  0x08006a21   Thumb Code    92  api_msg.o(.text)
    do_recv                                  0x08006a7d   Thumb Code    60  api_msg.o(.text)
    do_write                                 0x08006ab9   Thumb Code    52  api_msg.o(.text)
    do_getaddr                               0x08006aed   Thumb Code   114  api_msg.o(.text)
    do_close                                 0x08006b5f   Thumb Code    32  api_msg.o(.text)
    netbuf_new                               0x08006c11   Thumb Code    24  netbuf.o(.text)
    netbuf_delete                            0x08006c29   Thumb Code    34  netbuf.o(.text)
    netbuf_alloc                             0x08006c4b   Thumb Code    42  netbuf.o(.text)
    netbuf_free                              0x08006c75   Thumb Code    22  netbuf.o(.text)
    netbuf_ref                               0x08006c8b   Thumb Code    64  netbuf.o(.text)
    netbuf_chain                             0x08006ccb   Thumb Code    38  netbuf.o(.text)
    netbuf_data                              0x08006cf1   Thumb Code    38  netbuf.o(.text)
    netbuf_next                              0x08006d17   Thumb Code    30  netbuf.o(.text)
    netbuf_first                             0x08006d35   Thumb Code    10  netbuf.o(.text)
    lwip_socket_init                         0x08006d41   Thumb Code    22  sockets.o(.text)
    lwip_accept                              0x08006e8b   Thumb Code   270  sockets.o(.text)
    lwip_bind                                0x08006f99   Thumb Code    84  sockets.o(.text)
    lwip_close                               0x08006fed   Thumb Code    58  sockets.o(.text)
    lwip_connect                             0x08007027   Thumb Code    84  sockets.o(.text)
    lwip_listen                              0x0800707b   Thumb Code    72  sockets.o(.text)
    lwip_recvfrom                            0x080070c3   Thumb Code   408  sockets.o(.text)
    lwip_read                                0x0800725b   Thumb Code    14  sockets.o(.text)
    lwip_recv                                0x08007269   Thumb Code    14  sockets.o(.text)
    lwip_sendto                              0x08007277   Thumb Code   174  sockets.o(.text)
    lwip_send                                0x08007325   Thumb Code   100  sockets.o(.text)
    lwip_socket                              0x08007389   Thumb Code    80  sockets.o(.text)
    lwip_write                               0x080073d9   Thumb Code     4  sockets.o(.text)
    lwip_select                              0x08007473   Thumb Code   400  sockets.o(.text)
    lwip_shutdown                            0x08007603   Thumb Code     2  sockets.o(.text)
    lwip_getpeername                         0x0800766f   Thumb Code     4  sockets.o(.text)
    lwip_getsockname                         0x08007673   Thumb Code     4  sockets.o(.text)
    lwip_getsockopt                          0x08007763   Thumb Code   238  sockets.o(.text)
    lwip_setsockopt                          0x0800790b   Thumb Code   216  sockets.o(.text)
    lwip_ioctl                               0x080079e3   Thumb Code   110  sockets.o(.text)
    tcp_timer_needed                         0x08007aa5   Thumb Code    36  tcpip.o(.text)
    tcpip_input                              0x08007bbf   Thumb Code    68  tcpip.o(.text)
    tcpip_callback_with_block                0x08007c03   Thumb Code    86  tcpip.o(.text)
    tcpip_timeout                            0x08007c59   Thumb Code    58  tcpip.o(.text)
    tcpip_untimeout                          0x08007c93   Thumb Code    52  tcpip.o(.text)
    tcpip_apimsg                             0x08007cc7   Thumb Code    48  tcpip.o(.text)
    tcpip_init                               0x08007cf7   Thumb Code    44  tcpip.o(.text)
    pbuf_free_callback                       0x08007d27   Thumb Code     8  tcpip.o(.text)
    mem_free_callback                        0x08007d2f   Thumb Code     8  tcpip.o(.text)
    dhcp_renew                               0x08008163   Thumb Code   198  dhcp.o(.text)
    dhcp_coarse_tmr                          0x080082dd   Thumb Code    90  dhcp.o(.text)
    dhcp_release                             0x080083e1   Thumb Code   178  dhcp.o(.text)
    dhcp_fine_tmr                            0x08008565   Thumb Code    46  dhcp.o(.text)
    dhcp_stop                                0x0800866f   Thumb Code    66  dhcp.o(.text)
    dhcp_start                               0x080087f7   Thumb Code   148  dhcp.o(.text)
    dhcp_inform                              0x0800888b   Thumb Code   148  dhcp.o(.text)
    dhcp_network_changed                     0x0800891f   Thumb Code    64  dhcp.o(.text)
    dhcp_arp_reply                           0x0800895f   Thumb Code    30  dhcp.o(.text)
    lwip_init                                0x08008b89   Thumb Code    26  init.o(.text)
    mem_init                                 0x08008ba5   Thumb Code    52  mem.o(.text)
    mem_free                                 0x08008bd9   Thumb Code    60  mem.o(.text)
    mem_realloc                              0x08008c15   Thumb Code   214  mem.o(.text)
    mem_malloc                               0x08008ceb   Thumb Code   194  mem.o(.text)
    mem_calloc                               0x08008dad   Thumb Code    26  mem.o(.text)
    memp_init                                0x08008e1d   Thumb Code    78  memp.o(.text)
    memp_malloc                              0x08008e6b   Thumb Code    30  memp.o(.text)
    memp_free                                0x08008e89   Thumb Code    20  memp.o(.text)
    netif_set_gw                             0x08008ea5   Thumb Code     8  netif.o(.text)
    netif_set_netmask                        0x08008ead   Thumb Code     8  netif.o(.text)
    netif_set_ipaddr                         0x08008eb5   Thumb Code    96  netif.o(.text)
    netif_set_addr                           0x08008f15   Thumb Code    30  netif.o(.text)
    netif_add                                0x08008f33   Thumb Code    72  netif.o(.text)
    netif_set_default                        0x08008f7b   Thumb Code     6  netif.o(.text)
    netif_remove                             0x08008f81   Thumb Code    52  netif.o(.text)
    netif_find                               0x08008fb5   Thumb Code    58  netif.o(.text)
    netif_set_up                             0x08008fef   Thumb Code    28  netif.o(.text)
    netif_set_down                           0x0800900b   Thumb Code    18  netif.o(.text)
    netif_is_up                              0x0800901d   Thumb Code    10  netif.o(.text)
    pbuf_free                                0x08009035   Thumb Code    68  pbuf.o(.text)
    pbuf_alloc                               0x08009079   Thumb Code   268  pbuf.o(.text)
    pbuf_realloc                             0x08009185   Thumb Code    78  pbuf.o(.text)
    pbuf_header                              0x080091d3   Thumb Code    96  pbuf.o(.text)
    pbuf_clen                                0x08009233   Thumb Code    18  pbuf.o(.text)
    pbuf_ref                                 0x08009245   Thumb Code    12  pbuf.o(.text)
    pbuf_cat                                 0x08009251   Thumb Code    40  pbuf.o(.text)
    pbuf_chain                               0x08009279   Thumb Code    16  pbuf.o(.text)
    pbuf_dechain                             0x08009289   Thumb Code    38  pbuf.o(.text)
    pbuf_copy                                0x080092af   Thumb Code   142  pbuf.o(.text)
    pbuf_copy_partial                        0x0800933d   Thumb Code   102  pbuf.o(.text)
    pbuf_take                                0x080093a3   Thumb Code    78  pbuf.o(.text)
    pbuf_coalesce                            0x080093f1   Thumb Code    44  pbuf.o(.text)
    raw_input                                0x0800941d   Thumb Code   100  raw.o(.text)
    raw_bind                                 0x08009481   Thumb Code    10  raw.o(.text)
    raw_connect                              0x0800948b   Thumb Code    10  raw.o(.text)
    raw_recv                                 0x08009495   Thumb Code     6  raw.o(.text)
    raw_sendto                               0x0800949b   Thumb Code   138  raw.o(.text)
    raw_send                                 0x08009525   Thumb Code     4  raw.o(.text)
    raw_remove                               0x08009529   Thumb Code    40  raw.o(.text)
    raw_new                                  0x08009551   Thumb Code    38  raw.o(.text)
    sys_mbox_fetch                           0x0800957d   Thumb Code   100  sys.o(.text)
    sys_sem_wait                             0x080095e1   Thumb Code    94  sys.o(.text)
    sys_timeout                              0x0800963f   Thumb Code    98  sys.o(.text)
    sys_untimeout                            0x080096a1   Thumb Code    78  sys.o(.text)
    sys_sem_wait_timeout                     0x080096fb   Thumb Code    58  sys.o(.text)
    sys_msleep                               0x08009735   Thumb Code    28  sys.o(.text)
    tcp_seg_free                             0x08009755   Thumb Code    32  tcp.o(.text)
    tcp_segs_free                            0x08009775   Thumb Code    26  tcp.o(.text)
    tcp_pcb_purge                            0x0800978f   Thumb Code    94  tcp.o(.text)
    tcp_slowtmr                              0x080097ed   Thumb Code   542  tcp.o(.text)
    tcp_pcb_remove                           0x08009a0b   Thumb Code    90  tcp.o(.text)
    tcp_close                                0x08009a65   Thumb Code   152  tcp.o(.text)
    tcp_update_rcv_ann_wnd                   0x08009afd   Thumb Code    52  tcp.o(.text)
    tcp_recved                               0x08009b31   Thumb Code    60  tcp.o(.text)
    tcp_recv_null                            0x08009b6d   Thumb Code    52  tcp.o(.text)
    tcp_fasttmr                              0x08009ba1   Thumb Code    86  tcp.o(.text)
    tcp_tmr                                  0x08009bf7   Thumb Code    26  tcp.o(.text)
    tcp_abandon                              0x08009c11   Thumb Code   144  tcp.o(.text)
    tcp_bind                                 0x08009cfd   Thumb Code   186  tcp.o(.text)
    tcp_listen_with_backlog                  0x08009dbd   Thumb Code   138  tcp.o(.text)
    tcp_eff_send_mss                         0x08009e47   Thumb Code    32  tcp.o(.text)
    tcp_next_iss                             0x08009e67   Thumb Code    12  tcp.o(.text)
    tcp_connect                              0x08009e73   Thumb Code   190  tcp.o(.text)
    tcp_setprio                              0x08009f31   Thumb Code     4  tcp.o(.text)
    tcp_alloc                                0x08009f35   Thumb Code   258  tcp.o(.text)
    tcp_new                                  0x0800a037   Thumb Code     4  tcp.o(.text)
    tcp_arg                                  0x0800a03b   Thumb Code     4  tcp.o(.text)
    tcp_recv                                 0x0800a03f   Thumb Code     6  tcp.o(.text)
    tcp_sent                                 0x0800a045   Thumb Code     6  tcp.o(.text)
    tcp_err                                  0x0800a04b   Thumb Code     6  tcp.o(.text)
    tcp_accept                               0x0800a051   Thumb Code     4  tcp.o(.text)
    tcp_poll                                 0x0800a055   Thumb Code    10  tcp.o(.text)
    tcp_debug_state_str                      0x0800a05f   Thumb Code     8  tcp.o(.text)
    tcp_input                                0x0800a967   Thumb Code   738  tcp_in.o(.text)
    tcp_enqueue                              0x0800ad41   Thumb Code   818  tcp_out.o(.text)
    tcp_send_ctrl                            0x0800b073   Thumb Code    22  tcp_out.o(.text)
    tcp_write                                0x0800b089   Thumb Code    46  tcp_out.o(.text)
    tcp_send_empty_ack                       0x0800b0b7   Thumb Code    86  tcp_out.o(.text)
    tcp_output                               0x0800b1b5   Thumb Code   428  tcp_out.o(.text)
    tcp_rst                                  0x0800b361   Thumb Code   156  tcp_out.o(.text)
    tcp_rexmit_rto                           0x0800b3fd   Thumb Code    44  tcp_out.o(.text)
    tcp_rexmit                               0x0800b429   Thumb Code    72  tcp_out.o(.text)
    tcp_rexmit_fast                          0x0800b471   Thumb Code    92  tcp_out.o(.text)
    tcp_keepalive                            0x0800b4cd   Thumb Code    70  tcp_out.o(.text)
    tcp_zero_window_probe                    0x0800b513   Thumb Code   166  tcp_out.o(.text)
    udp_input                                0x0800b5b9   Thumb Code   350  udp.o(.text)
    udp_bind                                 0x0800b717   Thumb Code    86  udp.o(.text)
    udp_sendto_if                            0x0800b76d   Thumb Code   176  udp.o(.text)
    udp_sendto                               0x0800b81d   Thumb Code    40  udp.o(.text)
    udp_send                                 0x0800b845   Thumb Code     6  udp.o(.text)
    udp_connect                              0x0800b84b   Thumb Code    70  udp.o(.text)
    udp_disconnect                           0x0800b891   Thumb Code    20  udp.o(.text)
    udp_recv                                 0x0800b8a5   Thumb Code     6  udp.o(.text)
    udp_remove                               0x0800b8ab   Thumb Code    40  udp.o(.text)
    udp_new                                  0x0800b8d3   Thumb Code    26  udp.o(.text)
    autoip_init                              0x0800b8f5   Thumb Code     2  autoip.o(.text)
    autoip_start                             0x0800b93b   Thumb Code   138  autoip.o(.text)
    autoip_network_changed                   0x0800b9c5   Thumb Code    32  autoip.o(.text)
    autoip_stop                              0x0800b9e5   Thumb Code    16  autoip.o(.text)
    autoip_tmr                               0x0800b9f5   Thumb Code   270  autoip.o(.text)
    autoip_arp_reply                         0x0800bb03   Thumb Code   158  autoip.o(.text)
    icmp_input                               0x0800bbe1   Thumb Code   276  icmp.o(.text)
    icmp_dest_unreach                        0x0800bcf5   Thumb Code   102  icmp.o(.text)
    htonl                                    0x0800bd5d   Thumb Code     4  inet.o(.text)
    inet_aton                                0x0800bd61   Thumb Code   238  inet.o(.text)
    inet_addr                                0x0800be4f   Thumb Code    20  inet.o(.text)
    inet_ntoa                                0x0800be63   Thumb Code    84  inet.o(.text)
    htons                                    0x0800beb7   Thumb Code     4  inet.o(.text)
    ntohs                                    0x0800bebb   Thumb Code     4  inet.o(.text)
    ntohl                                    0x0800bebf   Thumb Code     4  inet.o(.text)
    inet_chksum_pseudo                       0x0800bf05   Thumb Code   136  inet_chksum.o(.text)
    inet_chksum                              0x0800bf8d   Thumb Code    12  inet_chksum.o(.text)
    inet_chksum_pbuf                         0x0800bf99   Thumb Code    72  inet_chksum.o(.text)
    ip_route                                 0x0800bfe1   Thumb Code    62  ip.o(.text)
    ip_input                                 0x0800c01f   Thumb Code   388  ip.o(.text)
    ip_output_if                             0x0800c1a3   Thumb Code   174  ip.o(.text)
    ip_output                                0x0800c251   Thumb Code    52  ip.o(.text)
    ip_addr_isbroadcast                      0x0800c291   Thumb Code    48  ip_addr.o(.text)
    etharp_tmr                               0x0800c2c1   Thumb Code    54  etharp.o(.text)
    etharp_find_addr                         0x0800c479   Thumb Code    44  etharp.o(.text)
    etharp_ip_input                          0x0800c4a5   Thumb Code    42  etharp.o(.text)
    etharp_arp_input                         0x0800c4cf   Thumb Code   258  etharp.o(.text)
    etharp_raw                               0x0800c5d1   Thumb Code   178  etharp.o(.text)
    etharp_request                           0x0800c683   Thumb Code    46  etharp.o(.text)
    etharp_query                             0x0800c6b1   Thumb Code   138  etharp.o(.text)
    etharp_output                            0x0800c73b   Thumb Code   178  etharp.o(.text)
    ethernet_input                           0x0800c7ed   Thumb Code    76  etharp.o(.text)
    ethernetif_init                          0x0800c8e3   Thumb Code    46  ethernetif.o(.text)
    sys_mbox_new                             0x0800ca81   Thumb Code    10  sys_arch.o(.text)
    sys_mbox_free                            0x0800ca8b   Thumb Code    18  sys_arch.o(.text)
    sys_mbox_post                            0x0800ca9d   Thumb Code    26  sys_arch.o(.text)
    sys_mbox_trypost                         0x0800cab7   Thumb Code    26  sys_arch.o(.text)
    sys_arch_mbox_fetch                      0x0800cad1   Thumb Code    72  sys_arch.o(.text)
    sys_arch_mbox_tryfetch                   0x0800cb19   Thumb Code    26  sys_arch.o(.text)
    sys_sem_new                              0x0800cb33   Thumb Code    48  sys_arch.o(.text)
    sys_arch_sem_wait                        0x0800cb63   Thumb Code    58  sys_arch.o(.text)
    sys_sem_signal                           0x0800cb9d   Thumb Code    10  sys_arch.o(.text)
    sys_sem_free                             0x0800cba7   Thumb Code     4  sys_arch.o(.text)
    sys_init                                 0x0800cbab   Thumb Code    28  sys_arch.o(.text)
    sys_arch_timeouts                        0x0800cbc7   Thumb Code    38  sys_arch.o(.text)
    sys_thread_new                           0x0800cbed   Thumb Code    60  sys_arch.o(.text)
    sys_arch_protect                         0x0800cc29   Thumb Code    10  sys_arch.o(.text)
    sys_arch_unprotect                       0x0800cc33   Thumb Code     4  sys_arch.o(.text)
    sys_assert                               0x0800cc37   Thumb Code     6  sys_arch.o(.text)
    UART_RCC_Configuration                   0x0800cc45   Thumb Code   122  stm32f4xx_uartstdio.o(.text)
    UART_GPIO_Configuration                  0x0800ccbf   Thumb Code   216  stm32f4xx_uartstdio.o(.text)
    UARTstdio_Configuration                  0x0800cd97   Thumb Code    64  stm32f4xx_uartstdio.o(.text)
    UARTgetc                                 0x0800cdd7   Thumb Code    26  stm32f4xx_uartstdio.o(.text)
    UARTwrite                                0x0800cdf1   Thumb Code    58  stm32f4xx_uartstdio.o(.text)
    UARTgets                                 0x0800ce2b   Thumb Code   116  stm32f4xx_uartstdio.o(.text)
    UARTputc                                 0x0800ce9f   Thumb Code    28  stm32f4xx_uartstdio.o(.text)
    fputc                                    0x0800cebb   Thumb Code    28  stm32f4xx_uartstdio.o(.text)
    ferror                                   0x0800ced7   Thumb Code     4  stm32f4xx_uartstdio.o(.text)
    UARTprintf                               0x0800cedb   Thumb Code   718  stm32f4xx_uartstdio.o(.text)
    STM_EVAL_LEDOff                          0x0800d1b9   Thumb Code    16  stm32f4_discovery.o(.text)
    STM_EVAL_LEDInit                         0x0800d1c9   Thumb Code    68  stm32f4_discovery.o(.text)
    STM_EVAL_LEDOn                           0x0800d20d   Thumb Code    16  stm32f4_discovery.o(.text)
    STM_EVAL_LEDToggle                       0x0800d21d   Thumb Code    20  stm32f4_discovery.o(.text)
    STM_EVAL_BuzzerInit                      0x0800d231   Thumb Code    36  stm32f4_discovery.o(.text)
    STM_Output_LOW                           0x0800d255   Thumb Code     8  stm32f4_discovery.o(.text)
    STM_EVAL_OutCTLInit                      0x0800d25d   Thumb Code    40  stm32f4_discovery.o(.text)
    STM_Output_HIGH                          0x0800d285   Thumb Code     8  stm32f4_discovery.o(.text)
    STM_Buzzer_OFF                           0x0800d28d   Thumb Code     8  stm32f4_discovery.o(.text)
    STM_Buzzer_ON                            0x0800d295   Thumb Code     6  stm32f4_discovery.o(.text)
    STM_EVAL_PBInit                          0x0800d29b   Thumb Code   148  stm32f4_discovery.o(.text)
    STM_EVAL_PBGetState                      0x0800d32f   Thumb Code    20  stm32f4_discovery.o(.text)
    STM_EVAL_COMInit                         0x0800d343   Thumb Code   192  stm32f4_discovery.o(.text)
    SD_LowLevel_DeInit                       0x0800d403   Thumb Code   142  stm32f4_discovery.o(.text)
    SD_LowLevel_Init                         0x0800d491   Thumb Code   178  stm32f4_discovery.o(.text)
    SD_LowLevel_DMA_TxConfig                 0x0800d543   Thumb Code   190  stm32f4_discovery.o(.text)
    SD_LowLevel_DMA_RxConfig                 0x0800d601   Thumb Code   124  stm32f4_discovery.o(.text)
    ETH_DeInit                               0x0800d685   Thumb Code    24  stm32f4x7_eth.o(.text)
    ETH_StructInit                           0x0800d69d   Thumb Code   136  stm32f4x7_eth.o(.text)
    ETH_WritePHYRegister                     0x0800d725   Thumb Code    76  stm32f4x7_eth.o(.text)
    ETH_ReadPHYRegister                      0x0800d771   Thumb Code    80  stm32f4x7_eth.o(.text)
    ETH_Init                                 0x0800d7c1   Thumb Code   538  stm32f4x7_eth.o(.text)
    ETH_DMAReceptionCmd                      0x0800d9db   Thumb Code    22  stm32f4x7_eth.o(.text)
    ETH_DMATransmissionCmd                   0x0800d9f1   Thumb Code    22  stm32f4x7_eth.o(.text)
    ETH_MACReceptionCmd                      0x0800da07   Thumb Code    22  stm32f4x7_eth.o(.text)
    ETH_FlushTransmitFIFO                    0x0800da1d   Thumb Code    12  stm32f4x7_eth.o(.text)
    ETH_MACTransmissionCmd                   0x0800da29   Thumb Code    22  stm32f4x7_eth.o(.text)
    ETH_Start                                0x0800da3f   Thumb Code    32  stm32f4x7_eth.o(.text)
    ETH_Stop                                 0x0800da5f   Thumb Code    28  stm32f4x7_eth.o(.text)
    ETH_GetFlowControlBusyStatus             0x0800da7b   Thumb Code    14  stm32f4x7_eth.o(.text)
    ETH_InitiatePauseControlFrame            0x0800da89   Thumb Code    12  stm32f4x7_eth.o(.text)
    ETH_BackPressureActivationCmd            0x0800da95   Thumb Code    22  stm32f4x7_eth.o(.text)
    ETH_GetMACFlagStatus                     0x0800daab   Thumb Code    16  stm32f4x7_eth.o(.text)
    ETH_GetMACITStatus                       0x0800dabb   Thumb Code    16  stm32f4x7_eth.o(.text)
    ETH_MACITConfig                          0x0800dacb   Thumb Code    18  stm32f4x7_eth.o(.text)
    ETH_MACAddressConfig                     0x0800dadd   Thumb Code    22  stm32f4x7_eth.o(.text)
    ETH_GetMACAddress                        0x0800daf3   Thumb Code    86  stm32f4x7_eth.o(.text)
    ETH_MACAddressPerfectFilterCmd           0x0800db49   Thumb Code    24  stm32f4x7_eth.o(.text)
    ETH_MACAddressFilterConfig               0x0800db61   Thumb Code    24  stm32f4x7_eth.o(.text)
    ETH_MACAddressMaskBytesFilterConfig      0x0800db79   Thumb Code    20  stm32f4x7_eth.o(.text)
    ETH_Get_Received_Frame                   0x0800db8d   Thumb Code    42  stm32f4x7_eth.o(.text)
    ETH_Get_Received_Frame_interrupt         0x0800dbb7   Thumb Code   134  stm32f4x7_eth.o(.text)
    ETH_Prepare_Transmit_Descriptors         0x0800dc3d   Thumb Code   168  stm32f4x7_eth.o(.text)
    ETH_DMARxDescChainInit                   0x0800dce5   Thumb Code    74  stm32f4x7_eth.o(.text)
    ETH_CheckFrameReceived                   0x0800dd2f   Thumb Code    96  stm32f4x7_eth.o(.text)
    ETH_DMATxDescChainInit                   0x0800dd8f   Thumb Code    62  stm32f4x7_eth.o(.text)
    ETH_GetDMATxDescFlagStatus               0x0800ddcd   Thumb Code    14  stm32f4x7_eth.o(.text)
    ETH_GetDMATxDescCollisionCount           0x0800dddb   Thumb Code     8  stm32f4x7_eth.o(.text)
    ETH_SetDMATxDescOwnBit                   0x0800dde3   Thumb Code    10  stm32f4x7_eth.o(.text)
    ETH_DMATxDescTransmitITConfig            0x0800dded   Thumb Code    20  stm32f4x7_eth.o(.text)
    ETH_DMATxDescFrameSegmentConfig          0x0800de01   Thumb Code     8  stm32f4x7_eth.o(.text)
    ETH_DMATxDescChecksumInsertionConfig     0x0800de09   Thumb Code     8  stm32f4x7_eth.o(.text)
    ETH_DMATxDescCRCCmd                      0x0800de11   Thumb Code    20  stm32f4x7_eth.o(.text)
    ETH_DMATxDescSecondAddressChainedCmd     0x0800de25   Thumb Code    20  stm32f4x7_eth.o(.text)
    ETH_DMATxDescShortFramePaddingCmd        0x0800de39   Thumb Code    20  stm32f4x7_eth.o(.text)
    ETH_DMATxDescBufferSizeConfig            0x0800de4d   Thumb Code    12  stm32f4x7_eth.o(.text)
    ETH_GetDMARxDescFlagStatus               0x0800de59   Thumb Code    14  stm32f4x7_eth.o(.text)
    ETH_GetDMAPTPRxDescExtendedFlagStatus    0x0800de67   Thumb Code    14  stm32f4x7_eth.o(.text)
    ETH_SetDMARxDescOwnBit                   0x0800de75   Thumb Code    10  stm32f4x7_eth.o(.text)
    ETH_GetDMARxDescFrameLength              0x0800de7f   Thumb Code     8  stm32f4x7_eth.o(.text)
    ETH_DMARxDescReceiveITConfig             0x0800de87   Thumb Code    18  stm32f4x7_eth.o(.text)
    ETH_GetDMARxDescBufferSize               0x0800de99   Thumb Code    16  stm32f4x7_eth.o(.text)
    ETH_GetRxPktSize                         0x0800dea9   Thumb Code    30  stm32f4x7_eth.o(.text)
    ETH_EnhancedDescriptorCmd                0x0800dec7   Thumb Code    22  stm32f4x7_eth.o(.text)
    ETH_SoftwareReset                        0x0800dedd   Thumb Code    12  stm32f4x7_eth.o(.text)
    ETH_GetSoftwareResetStatus               0x0800dee9   Thumb Code    14  stm32f4x7_eth.o(.text)
    ETH_GetDMAFlagStatus                     0x0800def7   Thumb Code    16  stm32f4x7_eth.o(.text)
    ETH_DMAClearFlag                         0x0800df07   Thumb Code     6  stm32f4x7_eth.o(.text)
    ETH_DMAITConfig                          0x0800df0d   Thumb Code    18  stm32f4x7_eth.o(.text)
    ETH_GetDMAITStatus                       0x0800df1f   Thumb Code    34  stm32f4x7_eth.o(.text)
    ETH_DMAClearITPendingBit                 0x0800df41   Thumb Code     6  stm32f4x7_eth.o(.text)
    ETH_GetTransmitProcessState              0x0800df47   Thumb Code    10  stm32f4x7_eth.o(.text)
    ETH_GetReceiveProcessState               0x0800df51   Thumb Code    10  stm32f4x7_eth.o(.text)
    ETH_GetFlushTransmitFIFOStatus           0x0800df5b   Thumb Code    14  stm32f4x7_eth.o(.text)
    ETH_GetDMAOverflowStatus                 0x0800df69   Thumb Code    16  stm32f4x7_eth.o(.text)
    ETH_GetRxOverflowMissedFrameCounter      0x0800df79   Thumb Code    10  stm32f4x7_eth.o(.text)
    ETH_GetBufferUnavailableMissedFrameCounter 0x0800df83   Thumb Code     8  stm32f4x7_eth.o(.text)
    ETH_GetCurrentTxDescStartAddress         0x0800df8b   Thumb Code     6  stm32f4x7_eth.o(.text)
    ETH_GetCurrentRxDescStartAddress         0x0800df91   Thumb Code     6  stm32f4x7_eth.o(.text)
    ETH_GetCurrentTxBufferAddress            0x0800df97   Thumb Code     6  stm32f4x7_eth.o(.text)
    ETH_GetCurrentRxBufferAddress            0x0800df9d   Thumb Code     6  stm32f4x7_eth.o(.text)
    ETH_ResumeDMATransmission                0x0800dfa3   Thumb Code     8  stm32f4x7_eth.o(.text)
    ETH_ResumeDMAReception                   0x0800dfab   Thumb Code     8  stm32f4x7_eth.o(.text)
    ETH_SetReceiveWatchdogTimer              0x0800dfb3   Thumb Code     6  stm32f4x7_eth.o(.text)
    ETH_PHYLoopBackCmd                       0x0800dfb9   Thumb Code    40  stm32f4x7_eth.o(.text)
    ETH_ResetWakeUpFrameFilterRegisterPointer 0x0800dfe1   Thumb Code    12  stm32f4x7_eth.o(.text)
    ETH_SetWakeUpFrameFilterRegister         0x0800dfed   Thumb Code    18  stm32f4x7_eth.o(.text)
    ETH_GlobalUnicastWakeUpCmd               0x0800dfff   Thumb Code    22  stm32f4x7_eth.o(.text)
    ETH_GetPMTFlagStatus                     0x0800e015   Thumb Code    16  stm32f4x7_eth.o(.text)
    ETH_WakeUpFrameDetectionCmd              0x0800e025   Thumb Code    22  stm32f4x7_eth.o(.text)
    ETH_MagicPacketDetectionCmd              0x0800e03b   Thumb Code    22  stm32f4x7_eth.o(.text)
    ETH_PowerDownCmd                         0x0800e051   Thumb Code    22  stm32f4x7_eth.o(.text)
    ETH_MMCCounterFullPreset                 0x0800e067   Thumb Code    16  stm32f4x7_eth.o(.text)
    ETH_MMCCounterHalfPreset                 0x0800e077   Thumb Code    28  stm32f4x7_eth.o(.text)
    ETH_MMCCounterFreezeCmd                  0x0800e093   Thumb Code    26  stm32f4x7_eth.o(.text)
    ETH_MMCResetOnReadCmd                    0x0800e0ad   Thumb Code    26  stm32f4x7_eth.o(.text)
    ETH_MMCCounterRolloverCmd                0x0800e0c7   Thumb Code    26  stm32f4x7_eth.o(.text)
    ETH_MMCCountersReset                     0x0800e0e1   Thumb Code    16  stm32f4x7_eth.o(.text)
    ETH_MMCITConfig                          0x0800e0f1   Thumb Code    50  stm32f4x7_eth.o(.text)
    ETH_GetMMCITStatus                       0x0800e123   Thumb Code    36  stm32f4x7_eth.o(.text)
    ETH_GetMMCRegister                       0x0800e147   Thumb Code     6  stm32f4x7_eth.o(.text)
    USART_DeInit                             0x0800e169   Thumb Code   114  stm32f4xx_usart.o(.text)
    USART_Init                               0x0800e1db   Thumb Code   164  stm32f4xx_usart.o(.text)
    USART_StructInit                         0x0800e27f   Thumb Code    22  stm32f4xx_usart.o(.text)
    USART_ClockInit                          0x0800e295   Thumb Code    28  stm32f4xx_usart.o(.text)
    USART_ClockStructInit                    0x0800e2b1   Thumb Code    12  stm32f4xx_usart.o(.text)
    USART_Cmd                                0x0800e2bd   Thumb Code    20  stm32f4xx_usart.o(.text)
    USART_SetPrescaler                       0x0800e2d1   Thumb Code    16  stm32f4xx_usart.o(.text)
    USART_OverSampling8Cmd                   0x0800e2e1   Thumb Code    20  stm32f4xx_usart.o(.text)
    USART_OneBitMethodCmd                    0x0800e2f5   Thumb Code    20  stm32f4xx_usart.o(.text)
    USART_SendData                           0x0800e309   Thumb Code     8  stm32f4xx_usart.o(.text)
    USART_ReceiveData                        0x0800e311   Thumb Code     8  stm32f4xx_usart.o(.text)
    USART_SetAddress                         0x0800e319   Thumb Code    16  stm32f4xx_usart.o(.text)
    USART_ReceiverWakeUpCmd                  0x0800e329   Thumb Code    20  stm32f4xx_usart.o(.text)
    USART_WakeUpConfig                       0x0800e33d   Thumb Code    16  stm32f4xx_usart.o(.text)
    USART_LINBreakDetectLengthConfig         0x0800e34d   Thumb Code    16  stm32f4xx_usart.o(.text)
    USART_LINCmd                             0x0800e35d   Thumb Code    20  stm32f4xx_usart.o(.text)
    USART_SendBreak                          0x0800e371   Thumb Code    10  stm32f4xx_usart.o(.text)
    USART_HalfDuplexCmd                      0x0800e37b   Thumb Code    20  stm32f4xx_usart.o(.text)
    USART_SetGuardTime                       0x0800e38f   Thumb Code    16  stm32f4xx_usart.o(.text)
    USART_SmartCardCmd                       0x0800e39f   Thumb Code    20  stm32f4xx_usart.o(.text)
    USART_SmartCardNACKCmd                   0x0800e3b3   Thumb Code    20  stm32f4xx_usart.o(.text)
    USART_IrDAConfig                         0x0800e3c7   Thumb Code    16  stm32f4xx_usart.o(.text)
    USART_IrDACmd                            0x0800e3d7   Thumb Code    20  stm32f4xx_usart.o(.text)
    USART_DMACmd                             0x0800e3eb   Thumb Code    16  stm32f4xx_usart.o(.text)
    USART_ITConfig                           0x0800e3fb   Thumb Code    48  stm32f4xx_usart.o(.text)
    USART_GetFlagStatus                      0x0800e42b   Thumb Code    14  stm32f4xx_usart.o(.text)
    USART_ClearFlag                          0x0800e439   Thumb Code     6  stm32f4xx_usart.o(.text)
    USART_GetITStatus                        0x0800e43f   Thumb Code    62  stm32f4xx_usart.o(.text)
    USART_ClearITPendingBit                  0x0800e47d   Thumb Code    12  stm32f4xx_usart.o(.text)
    NVIC_PriorityGroupConfig                 0x0800e4a1   Thumb Code    10  misc.o(.text)
    NVIC_Init                                0x0800e4ab   Thumb Code    96  misc.o(.text)
    NVIC_SetVectorTable                      0x0800e50b   Thumb Code    14  misc.o(.text)
    NVIC_SystemLPConfig                      0x0800e519   Thumb Code    20  misc.o(.text)
    SysTick_CLKSourceConfig                  0x0800e52d   Thumb Code    24  misc.o(.text)
    ADC_DeInit                               0x0800e551   Thumb Code    24  stm32f4xx_adc.o(.text)
    ADC_Init                                 0x0800e569   Thumb Code    66  stm32f4xx_adc.o(.text)
    ADC_StructInit                           0x0800e5ab   Thumb Code    20  stm32f4xx_adc.o(.text)
    ADC_CommonInit                           0x0800e5bf   Thumb Code    34  stm32f4xx_adc.o(.text)
    ADC_CommonStructInit                     0x0800e5e1   Thumb Code    12  stm32f4xx_adc.o(.text)
    ADC_Cmd                                  0x0800e5ed   Thumb Code    20  stm32f4xx_adc.o(.text)
    ADC_AnalogWatchdogCmd                    0x0800e601   Thumb Code    12  stm32f4xx_adc.o(.text)
    ADC_AnalogWatchdogThresholdsConfig       0x0800e60d   Thumb Code     6  stm32f4xx_adc.o(.text)
    ADC_AnalogWatchdogSingleChannelConfig    0x0800e613   Thumb Code    12  stm32f4xx_adc.o(.text)
    ADC_TempSensorVrefintCmd                 0x0800e61f   Thumb Code    26  stm32f4xx_adc.o(.text)
    ADC_VBATCmd                              0x0800e639   Thumb Code    26  stm32f4xx_adc.o(.text)
    ADC_RegularChannelConfig                 0x0800e653   Thumb Code   116  stm32f4xx_adc.o(.text)
    ADC_SoftwareStartConv                    0x0800e6c7   Thumb Code    10  stm32f4xx_adc.o(.text)
    ADC_GetSoftwareStartConvStatus           0x0800e6d1   Thumb Code    14  stm32f4xx_adc.o(.text)
    ADC_EOCOnEachRegularChannelCmd           0x0800e6df   Thumb Code    20  stm32f4xx_adc.o(.text)
    ADC_ContinuousModeCmd                    0x0800e6f3   Thumb Code    20  stm32f4xx_adc.o(.text)
    ADC_DiscModeChannelCountConfig           0x0800e707   Thumb Code    16  stm32f4xx_adc.o(.text)
    ADC_DiscModeCmd                          0x0800e717   Thumb Code    20  stm32f4xx_adc.o(.text)
    ADC_GetConversionValue                   0x0800e72b   Thumb Code     6  stm32f4xx_adc.o(.text)
    ADC_GetMultiModeConversionValue          0x0800e731   Thumb Code     8  stm32f4xx_adc.o(.text)
    ADC_DMACmd                               0x0800e739   Thumb Code    20  stm32f4xx_adc.o(.text)
    ADC_DMARequestAfterLastTransferCmd       0x0800e74d   Thumb Code    20  stm32f4xx_adc.o(.text)
    ADC_MultiModeDMARequestAfterLastTransferCmd 0x0800e761   Thumb Code    26  stm32f4xx_adc.o(.text)
    ADC_InjectedChannelConfig                0x0800e77b   Thumb Code    74  stm32f4xx_adc.o(.text)
    ADC_InjectedSequencerLengthConfig        0x0800e7c5   Thumb Code    16  stm32f4xx_adc.o(.text)
    ADC_SetInjectedOffset                    0x0800e7d5   Thumb Code    10  stm32f4xx_adc.o(.text)
    ADC_ExternalTrigInjectedConvConfig       0x0800e7df   Thumb Code    12  stm32f4xx_adc.o(.text)
    ADC_ExternalTrigInjectedConvEdgeConfig   0x0800e7eb   Thumb Code    12  stm32f4xx_adc.o(.text)
    ADC_SoftwareStartInjectedConv            0x0800e7f7   Thumb Code    10  stm32f4xx_adc.o(.text)
    ADC_GetSoftwareStartInjectedConvCmdStatus 0x0800e801   Thumb Code    14  stm32f4xx_adc.o(.text)
    ADC_AutoInjectedConvCmd                  0x0800e80f   Thumb Code    20  stm32f4xx_adc.o(.text)
    ADC_InjectedDiscModeCmd                  0x0800e823   Thumb Code    20  stm32f4xx_adc.o(.text)
    ADC_GetInjectedConversionValue           0x0800e837   Thumb Code    14  stm32f4xx_adc.o(.text)
    ADC_ITConfig                             0x0800e845   Thumb Code    18  stm32f4xx_adc.o(.text)
    ADC_GetFlagStatus                        0x0800e857   Thumb Code    14  stm32f4xx_adc.o(.text)
    ADC_ClearFlag                            0x0800e865   Thumb Code     6  stm32f4xx_adc.o(.text)
    ADC_GetITStatus                          0x0800e86b   Thumb Code    30  stm32f4xx_adc.o(.text)
    ADC_ClearITPendingBit                    0x0800e889   Thumb Code     8  stm32f4xx_adc.o(.text)
    DMA_DeInit                               0x0800e8a5   Thumb Code   272  stm32f4xx_dma.o(.text)
    DMA_Init                                 0x0800e9b5   Thumb Code    80  stm32f4xx_dma.o(.text)
    DMA_StructInit                           0x0800ea05   Thumb Code    34  stm32f4xx_dma.o(.text)
    DMA_Cmd                                  0x0800ea27   Thumb Code    20  stm32f4xx_dma.o(.text)
    DMA_PeriphIncOffsetSizeConfig            0x0800ea3b   Thumb Code    20  stm32f4xx_dma.o(.text)
    DMA_FlowControllerConfig                 0x0800ea4f   Thumb Code    20  stm32f4xx_dma.o(.text)
    DMA_SetCurrDataCounter                   0x0800ea63   Thumb Code     4  stm32f4xx_dma.o(.text)
    DMA_GetCurrDataCounter                   0x0800ea67   Thumb Code     6  stm32f4xx_dma.o(.text)
    DMA_DoubleBufferModeConfig               0x0800ea6d   Thumb Code    22  stm32f4xx_dma.o(.text)
    DMA_DoubleBufferModeCmd                  0x0800ea83   Thumb Code    20  stm32f4xx_dma.o(.text)
    DMA_MemoryTargetConfig                   0x0800ea97   Thumb Code    10  stm32f4xx_dma.o(.text)
    DMA_GetCurrentMemoryTarget               0x0800eaa1   Thumb Code    14  stm32f4xx_dma.o(.text)
    DMA_GetCmdStatus                         0x0800eaaf   Thumb Code    14  stm32f4xx_dma.o(.text)
    DMA_GetFIFOStatus                        0x0800eabd   Thumb Code     8  stm32f4xx_dma.o(.text)
    DMA_GetFlagStatus                        0x0800eac5   Thumb Code    42  stm32f4xx_dma.o(.text)
    DMA_ClearFlag                            0x0800eaef   Thumb Code    34  stm32f4xx_dma.o(.text)
    DMA_ITConfig                             0x0800eb11   Thumb Code    44  stm32f4xx_dma.o(.text)
    DMA_GetITStatus                          0x0800eb3d   Thumb Code    70  stm32f4xx_dma.o(.text)
    DMA_ClearITPendingBit                    0x0800eb83   Thumb Code    34  stm32f4xx_dma.o(.text)
    EXTI_DeInit                              0x0800ebc5   Thumb Code    28  stm32f4xx_exti.o(.text)
    EXTI_Init                                0x0800ebe1   Thumb Code   108  stm32f4xx_exti.o(.text)
    EXTI_StructInit                          0x0800ec4d   Thumb Code    14  stm32f4xx_exti.o(.text)
    EXTI_GenerateSWInterrupt                 0x0800ec5b   Thumb Code    12  stm32f4xx_exti.o(.text)
    EXTI_GetFlagStatus                       0x0800ec67   Thumb Code    18  stm32f4xx_exti.o(.text)
    EXTI_ClearFlag                           0x0800ec79   Thumb Code     8  stm32f4xx_exti.o(.text)
    EXTI_GetITStatus                         0x0800ec81   Thumb Code    28  stm32f4xx_exti.o(.text)
    EXTI_ClearITPendingBit                   0x0800ec9d   Thumb Code     8  stm32f4xx_exti.o(.text)
    GPIO_DeInit                              0x0800ecad   Thumb Code   192  stm32f4xx_gpio.o(.text)
    GPIO_Init                                0x0800ed6d   Thumb Code   120  stm32f4xx_gpio.o(.text)
    GPIO_StructInit                          0x0800ede5   Thumb Code    18  stm32f4xx_gpio.o(.text)
    GPIO_PinLockConfig                       0x0800edf7   Thumb Code    24  stm32f4xx_gpio.o(.text)
    GPIO_ReadInputDataBit                    0x0800ee0f   Thumb Code    14  stm32f4xx_gpio.o(.text)
    GPIO_ReadInputData                       0x0800ee1d   Thumb Code     6  stm32f4xx_gpio.o(.text)
    GPIO_ReadOutputDataBit                   0x0800ee23   Thumb Code    14  stm32f4xx_gpio.o(.text)
    GPIO_ReadOutputData                      0x0800ee31   Thumb Code     6  stm32f4xx_gpio.o(.text)
    GPIO_SetBits                             0x0800ee37   Thumb Code     4  stm32f4xx_gpio.o(.text)
    GPIO_ResetBits                           0x0800ee3b   Thumb Code     4  stm32f4xx_gpio.o(.text)
    GPIO_WriteBit                            0x0800ee3f   Thumb Code    10  stm32f4xx_gpio.o(.text)
    GPIO_Write                               0x0800ee49   Thumb Code     4  stm32f4xx_gpio.o(.text)
    GPIO_ToggleBits                          0x0800ee4d   Thumb Code     8  stm32f4xx_gpio.o(.text)
    GPIO_PinAFConfig                         0x0800ee55   Thumb Code    32  stm32f4xx_gpio.o(.text)
    RCC_DeInit                               0x0800ee99   Thumb Code    48  stm32f4xx_rcc.o(.text)
    RCC_HSEConfig                            0x0800eec9   Thumb Code    12  stm32f4xx_rcc.o(.text)
    RCC_GetFlagStatus                        0x0800eed5   Thumb Code    46  stm32f4xx_rcc.o(.text)
    RCC_WaitForHSEStartUp                    0x0800ef03   Thumb Code    44  stm32f4xx_rcc.o(.text)
    RCC_AdjustHSICalibrationValue            0x0800ef2f   Thumb Code    16  stm32f4xx_rcc.o(.text)
    RCC_HSICmd                               0x0800ef3f   Thumb Code     6  stm32f4xx_rcc.o(.text)
    RCC_LSEConfig                            0x0800ef45   Thumb Code    24  stm32f4xx_rcc.o(.text)
    RCC_LSICmd                               0x0800ef5d   Thumb Code     6  stm32f4xx_rcc.o(.text)
    RCC_PLLConfig                            0x0800ef63   Thumb Code    32  stm32f4xx_rcc.o(.text)
    RCC_PLLCmd                               0x0800ef83   Thumb Code     6  stm32f4xx_rcc.o(.text)
    RCC_PLLI2SConfig                         0x0800ef89   Thumb Code    14  stm32f4xx_rcc.o(.text)
    RCC_PLLI2SCmd                            0x0800ef97   Thumb Code     6  stm32f4xx_rcc.o(.text)
    RCC_ClockSecuritySystemCmd               0x0800ef9d   Thumb Code     6  stm32f4xx_rcc.o(.text)
    RCC_MCO1Config                           0x0800efa3   Thumb Code    18  stm32f4xx_rcc.o(.text)
    RCC_MCO2Config                           0x0800efb5   Thumb Code    18  stm32f4xx_rcc.o(.text)
    RCC_SYSCLKConfig                         0x0800efc7   Thumb Code    16  stm32f4xx_rcc.o(.text)
    RCC_GetSYSCLKSource                      0x0800efd7   Thumb Code    12  stm32f4xx_rcc.o(.text)
    RCC_HCLKConfig                           0x0800efe3   Thumb Code    16  stm32f4xx_rcc.o(.text)
    RCC_PCLK1Config                          0x0800eff3   Thumb Code    16  stm32f4xx_rcc.o(.text)
    RCC_PCLK2Config                          0x0800f003   Thumb Code    18  stm32f4xx_rcc.o(.text)
    RCC_GetClocksFreq                        0x0800f015   Thumb Code   140  stm32f4xx_rcc.o(.text)
    RCC_RTCCLKConfig                         0x0800f0a1   Thumb Code    42  stm32f4xx_rcc.o(.text)
    RCC_RTCCLKCmd                            0x0800f0cb   Thumb Code     8  stm32f4xx_rcc.o(.text)
    RCC_BackupResetCmd                       0x0800f0d3   Thumb Code     8  stm32f4xx_rcc.o(.text)
    RCC_I2SCLKConfig                         0x0800f0db   Thumb Code     8  stm32f4xx_rcc.o(.text)
    RCC_AHB1PeriphClockCmd                   0x0800f0e3   Thumb Code    20  stm32f4xx_rcc.o(.text)
    RCC_AHB2PeriphClockCmd                   0x0800f0f7   Thumb Code    20  stm32f4xx_rcc.o(.text)
    RCC_AHB3PeriphClockCmd                   0x0800f10b   Thumb Code    20  stm32f4xx_rcc.o(.text)
    RCC_APB1PeriphClockCmd                   0x0800f11f   Thumb Code    20  stm32f4xx_rcc.o(.text)
    RCC_APB2PeriphClockCmd                   0x0800f133   Thumb Code    20  stm32f4xx_rcc.o(.text)
    RCC_AHB1PeriphResetCmd                   0x0800f147   Thumb Code    20  stm32f4xx_rcc.o(.text)
    RCC_AHB2PeriphResetCmd                   0x0800f15b   Thumb Code    20  stm32f4xx_rcc.o(.text)
    RCC_AHB3PeriphResetCmd                   0x0800f16f   Thumb Code    20  stm32f4xx_rcc.o(.text)
    RCC_APB1PeriphResetCmd                   0x0800f183   Thumb Code    20  stm32f4xx_rcc.o(.text)
    RCC_APB2PeriphResetCmd                   0x0800f197   Thumb Code    20  stm32f4xx_rcc.o(.text)
    RCC_AHB1PeriphClockLPModeCmd             0x0800f1ab   Thumb Code    20  stm32f4xx_rcc.o(.text)
    RCC_AHB2PeriphClockLPModeCmd             0x0800f1bf   Thumb Code    20  stm32f4xx_rcc.o(.text)
    RCC_AHB3PeriphClockLPModeCmd             0x0800f1d3   Thumb Code    20  stm32f4xx_rcc.o(.text)
    RCC_APB1PeriphClockLPModeCmd             0x0800f1e7   Thumb Code    20  stm32f4xx_rcc.o(.text)
    RCC_APB2PeriphClockLPModeCmd             0x0800f1fb   Thumb Code    20  stm32f4xx_rcc.o(.text)
    RCC_ITConfig                             0x0800f20f   Thumb Code    20  stm32f4xx_rcc.o(.text)
    RCC_ClearFlag                            0x0800f223   Thumb Code    14  stm32f4xx_rcc.o(.text)
    RCC_GetITStatus                          0x0800f231   Thumb Code    18  stm32f4xx_rcc.o(.text)
    RCC_ClearITPendingBit                    0x0800f243   Thumb Code     8  stm32f4xx_rcc.o(.text)
    SYSCFG_DeInit                            0x0800f275   Thumb Code    24  stm32f4xx_syscfg.o(.text)
    SYSCFG_MemoryRemapConfig                 0x0800f28d   Thumb Code     6  stm32f4xx_syscfg.o(.text)
    SYSCFG_EXTILineConfig                    0x0800f293   Thumb Code    42  stm32f4xx_syscfg.o(.text)
    SYSCFG_ETH_MediaInterfaceConfig          0x0800f2bd   Thumb Code     8  stm32f4xx_syscfg.o(.text)
    SYSCFG_CompensationCellCmd               0x0800f2c5   Thumb Code     6  stm32f4xx_syscfg.o(.text)
    SYSCFG_GetCompensationCellStatus         0x0800f2cb   Thumb Code    16  stm32f4xx_syscfg.o(.text)
    SDIO_DeInit                              0x0800f2ed   Thumb Code    24  stm32f4xx_sdio.o(.text)
    SDIO_Init                                0x0800f305   Thumb Code    40  stm32f4xx_sdio.o(.text)
    SDIO_StructInit                          0x0800f32d   Thumb Code    16  stm32f4xx_sdio.o(.text)
    SDIO_ClockCmd                            0x0800f33d   Thumb Code     8  stm32f4xx_sdio.o(.text)
    SDIO_SetPowerState                       0x0800f345   Thumb Code     8  stm32f4xx_sdio.o(.text)
    SDIO_GetPowerState                       0x0800f34d   Thumb Code    12  stm32f4xx_sdio.o(.text)
    SDIO_SendCommand                         0x0800f359   Thumb Code    38  stm32f4xx_sdio.o(.text)
    SDIO_CmdStructInit                       0x0800f37f   Thumb Code    14  stm32f4xx_sdio.o(.text)
    SDIO_GetCommandResponse                  0x0800f38d   Thumb Code    10  stm32f4xx_sdio.o(.text)
    SDIO_GetResponse                         0x0800f397   Thumb Code    14  stm32f4xx_sdio.o(.text)
    SDIO_DataConfig                          0x0800f3a5   Thumb Code    44  stm32f4xx_sdio.o(.text)
    SDIO_DataStructInit                      0x0800f3d1   Thumb Code    20  stm32f4xx_sdio.o(.text)
    SDIO_GetDataCounter                      0x0800f3e5   Thumb Code     8  stm32f4xx_sdio.o(.text)
    SDIO_ReadData                            0x0800f3ed   Thumb Code     8  stm32f4xx_sdio.o(.text)
    SDIO_WriteData                           0x0800f3f5   Thumb Code     8  stm32f4xx_sdio.o(.text)
    SDIO_GetFIFOCount                        0x0800f3fd   Thumb Code     8  stm32f4xx_sdio.o(.text)
    SDIO_StartSDIOReadWait                   0x0800f405   Thumb Code     6  stm32f4xx_sdio.o(.text)
    SDIO_StopSDIOReadWait                    0x0800f40b   Thumb Code     8  stm32f4xx_sdio.o(.text)
    SDIO_SetSDIOReadWaitMode                 0x0800f413   Thumb Code     8  stm32f4xx_sdio.o(.text)
    SDIO_SetSDIOOperation                    0x0800f41b   Thumb Code     8  stm32f4xx_sdio.o(.text)
    SDIO_SendSDIOSuspendCmd                  0x0800f423   Thumb Code     8  stm32f4xx_sdio.o(.text)
    SDIO_CommandCompletionCmd                0x0800f42b   Thumb Code     8  stm32f4xx_sdio.o(.text)
    SDIO_CEATAITCmd                          0x0800f433   Thumb Code    12  stm32f4xx_sdio.o(.text)
    SDIO_SendCEATACmd                        0x0800f43f   Thumb Code     8  stm32f4xx_sdio.o(.text)
    SDIO_DMACmd                              0x0800f447   Thumb Code     8  stm32f4xx_sdio.o(.text)
    SDIO_ITConfig                            0x0800f44f   Thumb Code    20  stm32f4xx_sdio.o(.text)
    SDIO_GetFlagStatus                       0x0800f463   Thumb Code    18  stm32f4xx_sdio.o(.text)
    SDIO_ClearFlag                           0x0800f475   Thumb Code     8  stm32f4xx_sdio.o(.text)
    SDIO_GetITStatus                         0x0800f47d   Thumb Code    18  stm32f4xx_sdio.o(.text)
    SDIO_ClearITPendingBit                   0x0800f48f   Thumb Code     8  stm32f4xx_sdio.o(.text)
    TIM_DeInit                               0x0800f4a5   Thumb Code   284  stm32f4xx_tim.o(.text)
    TIM_TimeBaseInit                         0x0800f5c1   Thumb Code    96  stm32f4xx_tim.o(.text)
    TIM_TimeBaseStructInit                   0x0800f621   Thumb Code    18  stm32f4xx_tim.o(.text)
    TIM_PrescalerConfig                      0x0800f633   Thumb Code     6  stm32f4xx_tim.o(.text)
    TIM_CounterModeConfig                    0x0800f639   Thumb Code    12  stm32f4xx_tim.o(.text)
    TIM_SetCounter                           0x0800f645   Thumb Code     4  stm32f4xx_tim.o(.text)
    TIM_SetAutoreload                        0x0800f649   Thumb Code     4  stm32f4xx_tim.o(.text)
    TIM_GetCounter                           0x0800f64d   Thumb Code     4  stm32f4xx_tim.o(.text)
    TIM_GetPrescaler                         0x0800f651   Thumb Code     4  stm32f4xx_tim.o(.text)
    TIM_UpdateDisableConfig                  0x0800f655   Thumb Code    20  stm32f4xx_tim.o(.text)
    TIM_UpdateRequestConfig                  0x0800f669   Thumb Code    20  stm32f4xx_tim.o(.text)
    TIM_ARRPreloadConfig                     0x0800f67d   Thumb Code    20  stm32f4xx_tim.o(.text)
    TIM_SelectOnePulseMode                   0x0800f691   Thumb Code    16  stm32f4xx_tim.o(.text)
    TIM_SetClockDivision                     0x0800f6a1   Thumb Code    16  stm32f4xx_tim.o(.text)
    TIM_Cmd                                  0x0800f6b1   Thumb Code    20  stm32f4xx_tim.o(.text)
    TIM_OC1Init                              0x0800f6c5   Thumb Code    88  stm32f4xx_tim.o(.text)
    TIM_OC2Init                              0x0800f71d   Thumb Code   120  stm32f4xx_tim.o(.text)
    TIM_OC3Init                              0x0800f795   Thumb Code   116  stm32f4xx_tim.o(.text)
    TIM_OC4Init                              0x0800f809   Thumb Code    88  stm32f4xx_tim.o(.text)
    TIM_OCStructInit                         0x0800f861   Thumb Code    20  stm32f4xx_tim.o(.text)
    TIM_SelectOCxM                           0x0800f875   Thumb Code   130  stm32f4xx_tim.o(.text)
    TIM_SetCompare1                          0x0800f8f7   Thumb Code     4  stm32f4xx_tim.o(.text)
    TIM_SetCompare2                          0x0800f8fb   Thumb Code     4  stm32f4xx_tim.o(.text)
    TIM_SetCompare3                          0x0800f8ff   Thumb Code     4  stm32f4xx_tim.o(.text)
    TIM_SetCompare4                          0x0800f903   Thumb Code     4  stm32f4xx_tim.o(.text)
    TIM_ForcedOC1Config                      0x0800f907   Thumb Code    12  stm32f4xx_tim.o(.text)
    TIM_ForcedOC2Config                      0x0800f913   Thumb Code    20  stm32f4xx_tim.o(.text)
    TIM_ForcedOC3Config                      0x0800f927   Thumb Code    12  stm32f4xx_tim.o(.text)
    TIM_ForcedOC4Config                      0x0800f933   Thumb Code    20  stm32f4xx_tim.o(.text)
    TIM_OC1PreloadConfig                     0x0800f947   Thumb Code    12  stm32f4xx_tim.o(.text)
    TIM_OC2PreloadConfig                     0x0800f953   Thumb Code    20  stm32f4xx_tim.o(.text)
    TIM_OC3PreloadConfig                     0x0800f967   Thumb Code    12  stm32f4xx_tim.o(.text)
    TIM_OC4PreloadConfig                     0x0800f973   Thumb Code    20  stm32f4xx_tim.o(.text)
    TIM_OC1FastConfig                        0x0800f987   Thumb Code    12  stm32f4xx_tim.o(.text)
    TIM_OC2FastConfig                        0x0800f993   Thumb Code    20  stm32f4xx_tim.o(.text)
    TIM_OC3FastConfig                        0x0800f9a7   Thumb Code    12  stm32f4xx_tim.o(.text)
    TIM_OC4FastConfig                        0x0800f9b3   Thumb Code    20  stm32f4xx_tim.o(.text)
    TIM_ClearOC1Ref                          0x0800f9c7   Thumb Code    12  stm32f4xx_tim.o(.text)
    TIM_ClearOC2Ref                          0x0800f9d3   Thumb Code    20  stm32f4xx_tim.o(.text)
    TIM_ClearOC3Ref                          0x0800f9e7   Thumb Code    12  stm32f4xx_tim.o(.text)
    TIM_ClearOC4Ref                          0x0800f9f3   Thumb Code    20  stm32f4xx_tim.o(.text)
    TIM_OC1PolarityConfig                    0x0800fa07   Thumb Code    12  stm32f4xx_tim.o(.text)
    TIM_OC1NPolarityConfig                   0x0800fa13   Thumb Code    12  stm32f4xx_tim.o(.text)
    TIM_OC2PolarityConfig                    0x0800fa1f   Thumb Code    20  stm32f4xx_tim.o(.text)
    TIM_OC2NPolarityConfig                   0x0800fa33   Thumb Code    20  stm32f4xx_tim.o(.text)
    TIM_OC3PolarityConfig                    0x0800fa47   Thumb Code    20  stm32f4xx_tim.o(.text)
    TIM_OC3NPolarityConfig                   0x0800fa5b   Thumb Code    20  stm32f4xx_tim.o(.text)
    TIM_OC4PolarityConfig                    0x0800fa6f   Thumb Code    20  stm32f4xx_tim.o(.text)
    TIM_CCxCmd                               0x0800fa83   Thumb Code    22  stm32f4xx_tim.o(.text)
    TIM_CCxNCmd                              0x0800fa99   Thumb Code    22  stm32f4xx_tim.o(.text)
    TIM_SetIC4Prescaler                      0x0800faaf   Thumb Code    24  stm32f4xx_tim.o(.text)
    TIM_SetIC3Prescaler                      0x0800fac7   Thumb Code    16  stm32f4xx_tim.o(.text)
    TIM_SetIC2Prescaler                      0x0800fad7   Thumb Code    24  stm32f4xx_tim.o(.text)
    TIM_SetIC1Prescaler                      0x0800fb25   Thumb Code    16  stm32f4xx_tim.o(.text)
    TIM_ICInit                               0x0800fb35   Thumb Code   164  stm32f4xx_tim.o(.text)
    TIM_ICStructInit                         0x0800fbd9   Thumb Code    16  stm32f4xx_tim.o(.text)
    TIM_PWMIConfig                           0x0800fbe9   Thumb Code   104  stm32f4xx_tim.o(.text)
    TIM_GetCapture1                          0x0800fc51   Thumb Code     4  stm32f4xx_tim.o(.text)
    TIM_GetCapture2                          0x0800fc55   Thumb Code     4  stm32f4xx_tim.o(.text)
    TIM_GetCapture3                          0x0800fc59   Thumb Code     4  stm32f4xx_tim.o(.text)
    TIM_GetCapture4                          0x0800fc5d   Thumb Code     4  stm32f4xx_tim.o(.text)
    TIM_BDTRConfig                           0x0800fc61   Thumb Code    34  stm32f4xx_tim.o(.text)
    TIM_BDTRStructInit                       0x0800fc83   Thumb Code    18  stm32f4xx_tim.o(.text)
    TIM_CtrlPWMOutputs                       0x0800fc95   Thumb Code    22  stm32f4xx_tim.o(.text)
    TIM_SelectCOM                            0x0800fcab   Thumb Code    20  stm32f4xx_tim.o(.text)
    TIM_CCPreloadControl                     0x0800fcbf   Thumb Code    20  stm32f4xx_tim.o(.text)
    TIM_ITConfig                             0x0800fcd3   Thumb Code    16  stm32f4xx_tim.o(.text)
    TIM_GenerateEvent                        0x0800fce3   Thumb Code     4  stm32f4xx_tim.o(.text)
    TIM_GetFlagStatus                        0x0800fce7   Thumb Code    14  stm32f4xx_tim.o(.text)
    TIM_ClearFlag                            0x0800fcf5   Thumb Code     6  stm32f4xx_tim.o(.text)
    TIM_GetITStatus                          0x0800fcfb   Thumb Code    24  stm32f4xx_tim.o(.text)
    TIM_ClearITPendingBit                    0x0800fd13   Thumb Code     6  stm32f4xx_tim.o(.text)
    TIM_DMAConfig                            0x0800fd19   Thumb Code     8  stm32f4xx_tim.o(.text)
    TIM_DMACmd                               0x0800fd21   Thumb Code    16  stm32f4xx_tim.o(.text)
    TIM_SelectCCDMA                          0x0800fd31   Thumb Code    20  stm32f4xx_tim.o(.text)
    TIM_InternalClockConfig                  0x0800fd45   Thumb Code    10  stm32f4xx_tim.o(.text)
    TIM_SelectInputTrigger                   0x0800fd4f   Thumb Code    12  stm32f4xx_tim.o(.text)
    TIM_ITRxExternalClockConfig              0x0800fd5b   Thumb Code    18  stm32f4xx_tim.o(.text)
    TIM_TIxExternalClockConfig               0x0800fd6d   Thumb Code    46  stm32f4xx_tim.o(.text)
    TIM_ETRConfig                            0x0800fd9b   Thumb Code    24  stm32f4xx_tim.o(.text)
    TIM_ETRClockMode1Config                  0x0800fdb3   Thumb Code    18  stm32f4xx_tim.o(.text)
    TIM_ETRClockMode2Config                  0x0800fdc5   Thumb Code    18  stm32f4xx_tim.o(.text)
    TIM_SelectOutputTrigger                  0x0800fdd7   Thumb Code    16  stm32f4xx_tim.o(.text)
    TIM_SelectSlaveMode                      0x0800fde7   Thumb Code    16  stm32f4xx_tim.o(.text)
    TIM_SelectMasterSlaveMode                0x0800fdf7   Thumb Code    16  stm32f4xx_tim.o(.text)
    TIM_EncoderInterfaceConfig               0x0800fe07   Thumb Code    50  stm32f4xx_tim.o(.text)
    TIM_SelectHallSensor                     0x0800fe39   Thumb Code    20  stm32f4xx_tim.o(.text)
    TIM_RemapConfig                          0x0800fe4d   Thumb Code     6  stm32f4xx_tim.o(.text)
    FLASH_SetLatency                         0x0800fe81   Thumb Code     6  stm32f4xx_flash.o(.text)
    FLASH_PrefetchBufferCmd                  0x0800fe87   Thumb Code    22  stm32f4xx_flash.o(.text)
    FLASH_InstructionCacheCmd                0x0800fe9d   Thumb Code    22  stm32f4xx_flash.o(.text)
    FLASH_DataCacheCmd                       0x0800feb3   Thumb Code    22  stm32f4xx_flash.o(.text)
    FLASH_InstructionCacheReset              0x0800fec9   Thumb Code    12  stm32f4xx_flash.o(.text)
    FLASH_DataCacheReset                     0x0800fed5   Thumb Code    12  stm32f4xx_flash.o(.text)
    FLASH_Unlock                             0x0800fee1   Thumb Code    24  stm32f4xx_flash.o(.text)
    FLASH_Lock                               0x0800fef9   Thumb Code    14  stm32f4xx_flash.o(.text)
    FLASH_GetStatus                          0x0800ff07   Thumb Code    48  stm32f4xx_flash.o(.text)
    FLASH_WaitForLastOperation               0x0800ff37   Thumb Code    30  stm32f4xx_flash.o(.text)
    FLASH_EraseSector                        0x0800ff55   Thumb Code   106  stm32f4xx_flash.o(.text)
    FLASH_EraseAllSectors                    0x0800ffbf   Thumb Code    88  stm32f4xx_flash.o(.text)
    FLASH_ProgramDoubleWord                  0x08010017   Thumb Code    62  stm32f4xx_flash.o(.text)
    FLASH_ProgramWord                        0x08010055   Thumb Code    58  stm32f4xx_flash.o(.text)
    FLASH_ProgramHalfWord                    0x0801008f   Thumb Code    58  stm32f4xx_flash.o(.text)
    FLASH_ProgramByte                        0x080100c9   Thumb Code    54  stm32f4xx_flash.o(.text)
    FLASH_OB_Unlock                          0x080100ff   Thumb Code    24  stm32f4xx_flash.o(.text)
    FLASH_OB_Lock                            0x08010117   Thumb Code    14  stm32f4xx_flash.o(.text)
    FLASH_OB_WRPConfig                       0x08010125   Thumb Code    32  stm32f4xx_flash.o(.text)
    FLASH_OB_RDPConfig                       0x08010145   Thumb Code    20  stm32f4xx_flash.o(.text)
    FLASH_OB_UserConfig                      0x08010159   Thumb Code    36  stm32f4xx_flash.o(.text)
    FLASH_OB_BORConfig                       0x0801017d   Thumb Code    20  stm32f4xx_flash.o(.text)
    FLASH_OB_Launch                          0x08010191   Thumb Code    14  stm32f4xx_flash.o(.text)
    FLASH_OB_GetUser                         0x0801019f   Thumb Code    12  stm32f4xx_flash.o(.text)
    FLASH_OB_GetWRP                          0x080101ab   Thumb Code     8  stm32f4xx_flash.o(.text)
    FLASH_OB_GetRDP                          0x080101b3   Thumb Code    16  stm32f4xx_flash.o(.text)
    FLASH_OB_GetBOR                          0x080101c3   Thumb Code    12  stm32f4xx_flash.o(.text)
    FLASH_ITConfig                           0x080101cf   Thumb Code    20  stm32f4xx_flash.o(.text)
    FLASH_GetFlagStatus                      0x080101e3   Thumb Code    18  stm32f4xx_flash.o(.text)
    FLASH_ClearFlag                          0x080101f5   Thumb Code     8  stm32f4xx_flash.o(.text)
    RTC_WaitForSynchro                       0x08010211   Thumb Code    70  stm32f4xx_rtc.o(.text)
    RTC_EnterInitMode                        0x08010257   Thumb Code    58  stm32f4xx_rtc.o(.text)
    RTC_DeInit                               0x08010291   Thumb Code   168  stm32f4xx_rtc.o(.text)
    RTC_ExitInitMode                         0x08010339   Thumb Code    14  stm32f4xx_rtc.o(.text)
    RTC_Init                                 0x08010347   Thumb Code    74  stm32f4xx_rtc.o(.text)
    RTC_StructInit                           0x08010391   Thumb Code    14  stm32f4xx_rtc.o(.text)
    RTC_WriteProtectionCmd                   0x0801039f   Thumb Code    18  stm32f4xx_rtc.o(.text)
    RTC_RefClockCmd                          0x080103b1   Thumb Code    56  stm32f4xx_rtc.o(.text)
    RTC_BypassShadowCmd                      0x080103e9   Thumb Code    38  stm32f4xx_rtc.o(.text)
    RTC_SetTime                              0x0801040f   Thumb Code   148  stm32f4xx_rtc.o(.text)
    RTC_TimeStructInit                       0x080104a3   Thumb Code    12  stm32f4xx_rtc.o(.text)
    RTC_GetTime                              0x080104af   Thumb Code    70  stm32f4xx_rtc.o(.text)
    RTC_GetSubSecond                         0x080104f5   Thumb Code    14  stm32f4xx_rtc.o(.text)
    RTC_SetDate                              0x08010503   Thumb Code   142  stm32f4xx_rtc.o(.text)
    RTC_DateStructInit                       0x08010591   Thumb Code    14  stm32f4xx_rtc.o(.text)
    RTC_GetDate                              0x0801059f   Thumb Code    66  stm32f4xx_rtc.o(.text)
    RTC_SetAlarm                             0x080105e1   Thumb Code   184  stm32f4xx_rtc.o(.text)
    RTC_AlarmStructInit                      0x08010699   Thumb Code    20  stm32f4xx_rtc.o(.text)
    RTC_GetAlarm                             0x080106ad   Thumb Code   104  stm32f4xx_rtc.o(.text)
    RTC_AlarmCmd                             0x08010715   Thumb Code    78  stm32f4xx_rtc.o(.text)
    RTC_AlarmSubSecondConfig                 0x08010763   Thumb Code    38  stm32f4xx_rtc.o(.text)
    RTC_GetAlarmSubSecond                    0x08010789   Thumb Code    24  stm32f4xx_rtc.o(.text)
    RTC_WakeUpClockConfig                    0x080107a1   Thumb Code    34  stm32f4xx_rtc.o(.text)
    RTC_SetWakeUpCounter                     0x080107c3   Thumb Code    22  stm32f4xx_rtc.o(.text)
    RTC_GetWakeUpCounter                     0x080107d9   Thumb Code    10  stm32f4xx_rtc.o(.text)
    RTC_WakeUpCmd                            0x080107e3   Thumb Code    84  stm32f4xx_rtc.o(.text)
    RTC_DayLightSavingConfig                 0x08010837   Thumb Code    38  stm32f4xx_rtc.o(.text)
    RTC_GetStoreOperation                    0x0801085d   Thumb Code    12  stm32f4xx_rtc.o(.text)
    RTC_OutputConfig                         0x08010869   Thumb Code    38  stm32f4xx_rtc.o(.text)
    RTC_CoarseCalibConfig                    0x0801088f   Thumb Code    46  stm32f4xx_rtc.o(.text)
    RTC_CoarseCalibCmd                       0x080108bd   Thumb Code    56  stm32f4xx_rtc.o(.text)
    RTC_CalibOutputCmd                       0x080108f5   Thumb Code    38  stm32f4xx_rtc.o(.text)
    RTC_CalibOutputConfig                    0x0801091b   Thumb Code    34  stm32f4xx_rtc.o(.text)
    RTC_SmoothCalibConfig                    0x0801093d   Thumb Code    70  stm32f4xx_rtc.o(.text)
    RTC_TimeStampCmd                         0x08010983   Thumb Code    42  stm32f4xx_rtc.o(.text)
    RTC_GetTimeStamp                         0x080109ad   Thumb Code   130  stm32f4xx_rtc.o(.text)
    RTC_GetTimeStampSubSecond                0x08010a2f   Thumb Code     8  stm32f4xx_rtc.o(.text)
    RTC_TamperTriggerConfig                  0x08010a37   Thumb Code    24  stm32f4xx_rtc.o(.text)
    RTC_TamperCmd                            0x08010a4f   Thumb Code    28  stm32f4xx_rtc.o(.text)
    RTC_TamperFilterConfig                   0x08010a6b   Thumb Code    18  stm32f4xx_rtc.o(.text)
    RTC_TamperSamplingFreqConfig             0x08010a7d   Thumb Code    18  stm32f4xx_rtc.o(.text)
    RTC_TamperPinsPrechargeDuration          0x08010a8f   Thumb Code    18  stm32f4xx_rtc.o(.text)
    RTC_TimeStampOnTamperDetectionCmd        0x08010aa1   Thumb Code    22  stm32f4xx_rtc.o(.text)
    RTC_TamperPullUpCmd                      0x08010ab7   Thumb Code    22  stm32f4xx_rtc.o(.text)
    RTC_WriteBackupRegister                  0x08010acd   Thumb Code    16  stm32f4xx_rtc.o(.text)
    RTC_ReadBackupRegister                   0x08010add   Thumb Code    16  stm32f4xx_rtc.o(.text)
    RTC_TamperPinSelection                   0x08010aed   Thumb Code    18  stm32f4xx_rtc.o(.text)
    RTC_TimeStampPinSelection                0x08010aff   Thumb Code    18  stm32f4xx_rtc.o(.text)
    RTC_OutputTypeConfig                     0x08010b11   Thumb Code    18  stm32f4xx_rtc.o(.text)
    RTC_SynchroShiftConfig                   0x08010b23   Thumb Code    84  stm32f4xx_rtc.o(.text)
    RTC_ITConfig                             0x08010b77   Thumb Code    60  stm32f4xx_rtc.o(.text)
    RTC_GetFlagStatus                        0x08010bb3   Thumb Code    22  stm32f4xx_rtc.o(.text)
    RTC_ClearFlag                            0x08010bc9   Thumb Code    24  stm32f4xx_rtc.o(.text)
    RTC_GetITStatus                          0x08010be1   Thumb Code    46  stm32f4xx_rtc.o(.text)
    RTC_ClearITPendingBit                    0x08010c0f   Thumb Code    24  stm32f4xx_rtc.o(.text)
    PWR_DeInit                               0x08010c5d   Thumb Code    24  stm32f4xx_pwr.o(.text)
    PWR_BackupAccessCmd                      0x08010c75   Thumb Code     6  stm32f4xx_pwr.o(.text)
    PWR_PVDLevelConfig                       0x08010c7b   Thumb Code    14  stm32f4xx_pwr.o(.text)
    PWR_PVDCmd                               0x08010c89   Thumb Code     6  stm32f4xx_pwr.o(.text)
    PWR_WakeUpPinCmd                         0x08010c8f   Thumb Code     8  stm32f4xx_pwr.o(.text)
    PWR_BackupRegulatorCmd                   0x08010c97   Thumb Code     8  stm32f4xx_pwr.o(.text)
    PWR_MainRegulatorModeConfig              0x08010c9f   Thumb Code    22  stm32f4xx_pwr.o(.text)
    PWR_FlashPowerDownCmd                    0x08010cb5   Thumb Code     6  stm32f4xx_pwr.o(.text)
    PWR_EnterSTOPMode                        0x08010cbb   Thumb Code    42  stm32f4xx_pwr.o(.text)
    PWR_EnterSTANDBYMode                     0x08010ce5   Thumb Code    32  stm32f4xx_pwr.o(.text)
    PWR_GetFlagStatus                        0x08010d05   Thumb Code    16  stm32f4xx_pwr.o(.text)
    PWR_ClearFlag                            0x08010d15   Thumb Code    12  stm32f4xx_pwr.o(.text)
    vListInitialise                          0x08010d2d   Thumb Code    22  list.o(.text)
    vListInitialiseItem                      0x08010d43   Thumb Code     6  list.o(.text)
    vListInsertEnd                           0x08010d49   Thumb Code    24  list.o(.text)
    vListInsert                              0x08010d61   Thumb Code    48  list.o(.text)
    uxListRemove                             0x08010d91   Thumb Code    38  list.o(.text)
    xQueueGenericReset                       0x08010db9   Thumb Code   132  queue.o(.text)
    xQueueGenericCreate                      0x08010e3d   Thumb Code    82  queue.o(.text)
    xQueueGenericSend                        0x08010f63   Thumb Code   324  queue.o(.text)
    xQueueCreateMutex                        0x080110a7   Thumb Code    36  queue.o(.text)
    xQueueGiveMutexRecursive                 0x080110cb   Thumb Code    62  queue.o(.text)
    xQueueSemaphoreTake                      0x08011109   Thumb Code   354  queue.o(.text)
    xQueueTakeMutexRecursive                 0x0801126b   Thumb Code    64  queue.o(.text)
    xQueueCreateCountingSemaphore            0x080112ab   Thumb Code    58  queue.o(.text)
    xQueueGenericSendFromISR                 0x080112e5   Thumb Code   188  queue.o(.text)
    xQueueGiveFromISR                        0x080113a1   Thumb Code   156  queue.o(.text)
    xQueueReceive                            0x08011463   Thumb Code   280  queue.o(.text)
    xQueuePeek                               0x0801157b   Thumb Code   278  queue.o(.text)
    xQueueReceiveFromISR                     0x08011691   Thumb Code   152  queue.o(.text)
    xQueuePeekFromISR                        0x08011729   Thumb Code   116  queue.o(.text)
    uxQueueMessagesWaiting                   0x0801179d   Thumb Code    36  queue.o(.text)
    uxQueueSpacesAvailable                   0x080117c1   Thumb Code    40  queue.o(.text)
    uxQueueMessagesWaitingFromISR            0x080117e9   Thumb Code    22  queue.o(.text)
    vQueueUnregisterQueue                    0x080117ff   Thumb Code    36  queue.o(.text)
    vQueueDelete                             0x08011823   Thumb Code    36  queue.o(.text)
    uxQueueGetQueueNumber                    0x08011847   Thumb Code     4  queue.o(.text)
    vQueueSetQueueNumber                     0x0801184b   Thumb Code     4  queue.o(.text)
    ucQueueGetQueueType                      0x0801184f   Thumb Code     6  queue.o(.text)
    xQueueIsQueueEmptyFromISR                0x08011855   Thumb Code    30  queue.o(.text)
    xQueueIsQueueFullFromISR                 0x08011873   Thumb Code    34  queue.o(.text)
    vQueueAddToRegistry                      0x08011895   Thumb Code    32  queue.o(.text)
    pcQueueGetName                           0x080118b5   Thumb Code    34  queue.o(.text)
    xTaskCreate                              0x080119b9   Thumb Code    86  tasks.o(.text)
    vTaskDelete                              0x08011a0f   Thumb Code   158  tasks.o(.text)
    xTaskIncrementTick                       0x08011aad   Thumb Code   190  tasks.o(.text)
    xTaskResumeAll                           0x08011b6b   Thumb Code   184  tasks.o(.text)
    vTaskSuspendAll                          0x08011c89   Thumb Code    10  tasks.o(.text)
    vTaskDelay                               0x08011c93   Thumb Code    66  tasks.o(.text)
    eTaskGetState                            0x08011cd5   Thumb Code   112  tasks.o(.text)
    uxTaskPriorityGet                        0x08011d45   Thumb Code    24  tasks.o(.text)
    uxTaskPriorityGetFromISR                 0x08011d5d   Thumb Code    40  tasks.o(.text)
    vTaskPrioritySet                         0x08011d85   Thumb Code   182  tasks.o(.text)
    vTaskSwitchContext                       0x08011e3b   Thumb Code   106  tasks.o(.text)
    vTaskSuspend                             0x08011ea5   Thumb Code   168  tasks.o(.text)
    vTaskResume                              0x08011f7d   Thumb Code   112  tasks.o(.text)
    xTaskResumeFromISR                       0x08011fed   Thumb Code   126  tasks.o(.text)
    vTaskStartScheduler                      0x080120bb   Thumb Code   114  tasks.o(.text)
    vTaskEndScheduler                        0x0801212d   Thumb Code    24  tasks.o(.text)
    xTaskGetTickCount                        0x08012145   Thumb Code     6  tasks.o(.text)
    xTaskGetTickCountFromISR                 0x0801214b   Thumb Code    12  tasks.o(.text)
    uxTaskGetNumberOfTasks                   0x08012157   Thumb Code     6  tasks.o(.text)
    pcTaskGetName                            0x0801215d   Thumb Code    28  tasks.o(.text)
    xTaskGetHandle                           0x080121d1   Thumb Code   120  tasks.o(.text)
    vTaskGetInfo                             0x08012249   Thumb Code   120  tasks.o(.text)
    uxTaskGetSystemState                     0x08012315   Thumb Code   156  tasks.o(.text)
    vTaskPlaceOnEventList                    0x080123b1   Thumb Code    42  tasks.o(.text)
    vTaskPlaceOnUnorderedEventList           0x080123db   Thumb Code    70  tasks.o(.text)
    xTaskRemoveFromEventList                 0x08012421   Thumb Code   106  tasks.o(.text)
    vTaskRemoveFromUnorderedEventList        0x0801248b   Thumb Code   104  tasks.o(.text)
    vTaskSetTimeOutState                     0x080124f3   Thumb Code    58  tasks.o(.text)
    vTaskInternalSetTimeOutState             0x0801252d   Thumb Code    12  tasks.o(.text)
    xTaskCheckForTimeOut                     0x08012539   Thumb Code   110  tasks.o(.text)
    vTaskMissedYield                         0x080125a7   Thumb Code     8  tasks.o(.text)
    uxTaskGetTaskNumber                      0x080125af   Thumb Code     8  tasks.o(.text)
    vTaskSetTaskNumber                       0x080125b7   Thumb Code     8  tasks.o(.text)
    xTaskGetCurrentTaskHandle                0x080125bf   Thumb Code     6  tasks.o(.text)
    xTaskPriorityInherit                     0x080125c5   Thumb Code   140  tasks.o(.text)
    xTaskPriorityDisinherit                  0x08012651   Thumb Code   144  tasks.o(.text)
    vTaskPriorityDisinheritAfterTimeout      0x080126e1   Thumb Code   162  tasks.o(.text)
    uxTaskResetEventItemValue                0x08012783   Thumb Code    20  tasks.o(.text)
    pvTaskIncrementMutexHeldCount            0x08012797   Thumb Code    18  tasks.o(.text)
    ulTaskNotifyTake                         0x080127a9   Thumb Code    96  tasks.o(.text)
    xTaskNotifyWait                          0x08012809   Thumb Code   128  tasks.o(.text)
    xTaskGenericNotify                       0x08012889   Thumb Code   202  tasks.o(.text)
    xTaskGenericNotifyFromISR                0x08012953   Thumb Code   226  tasks.o(.text)
    vTaskNotifyGiveFromISR                   0x08012a35   Thumb Code   170  tasks.o(.text)
    xTaskNotifyStateClear                    0x08012adf   Thumb Code    44  tasks.o(.text)
    pxPortInitialiseStack                    0x08012c09   Thumb Code    40  port.o(.text)
    vPortSetupTimerInterrupt                 0x08012c31   Thumb Code    32  port.o(.text)
    xPortStartScheduler                      0x08012c51   Thumb Code   224  port.o(.text)
    vPortEndScheduler                        0x08012d31   Thumb Code    28  port.o(.text)
    vPortEnterCritical                       0x08012d4d   Thumb Code    56  port.o(.text)
    vPortExitCritical                        0x08012d85   Thumb Code    34  port.o(.text)
    xPortSysTickHandler                      0x08012da7   Thumb Code    40  port.o(.text)
    vPortValidateInterruptPriority           0x08012dcf   Thumb Code    76  port.o(.text)
    pvPortMalloc                             0x08012e39   Thumb Code   170  heap_2.o(.text)
    vPortFree                                0x08012ee3   Thumb Code    56  heap_2.o(.text)
    xPortGetFreeHeapSize                     0x08012f1b   Thumb Code     6  heap_2.o(.text)
    vPortInitialiseBlocks                    0x08012f21   Thumb Code     2  heap_2.o(.text)
    Reset_Handler                            0x08012f31   Thumb Code     8  startup_stm32f4xx.o(.text)
    ADC_IRQHandler                           0x08012f4b   Thumb Code     0  startup_stm32f4xx.o(.text)
    CAN1_RX0_IRQHandler                      0x08012f4b   Thumb Code     0  startup_stm32f4xx.o(.text)
    CAN1_RX1_IRQHandler                      0x08012f4b   Thumb Code     0  startup_stm32f4xx.o(.text)
    CAN1_SCE_IRQHandler                      0x08012f4b   Thumb Code     0  startup_stm32f4xx.o(.text)
    CAN1_TX_IRQHandler                       0x08012f4b   Thumb Code     0  startup_stm32f4xx.o(.text)
    CAN2_RX0_IRQHandler                      0x08012f4b   Thumb Code     0  startup_stm32f4xx.o(.text)
    CAN2_RX1_IRQHandler                      0x08012f4b   Thumb Code     0  startup_stm32f4xx.o(.text)
    CAN2_SCE_IRQHandler                      0x08012f4b   Thumb Code     0  startup_stm32f4xx.o(.text)
    CAN2_TX_IRQHandler                       0x08012f4b   Thumb Code     0  startup_stm32f4xx.o(.text)
    CRYP_IRQHandler                          0x08012f4b   Thumb Code     0  startup_stm32f4xx.o(.text)
    DCMI_IRQHandler                          0x08012f4b   Thumb Code     0  startup_stm32f4xx.o(.text)
    DMA1_Stream0_IRQHandler                  0x08012f4b   Thumb Code     0  startup_stm32f4xx.o(.text)
    DMA1_Stream1_IRQHandler                  0x08012f4b   Thumb Code     0  startup_stm32f4xx.o(.text)
    DMA1_Stream2_IRQHandler                  0x08012f4b   Thumb Code     0  startup_stm32f4xx.o(.text)
    DMA1_Stream3_IRQHandler                  0x08012f4b   Thumb Code     0  startup_stm32f4xx.o(.text)
    DMA1_Stream4_IRQHandler                  0x08012f4b   Thumb Code     0  startup_stm32f4xx.o(.text)
    DMA1_Stream5_IRQHandler                  0x08012f4b   Thumb Code     0  startup_stm32f4xx.o(.text)
    DMA1_Stream6_IRQHandler                  0x08012f4b   Thumb Code     0  startup_stm32f4xx.o(.text)
    DMA1_Stream7_IRQHandler                  0x08012f4b   Thumb Code     0  startup_stm32f4xx.o(.text)
    DMA2_Stream0_IRQHandler                  0x08012f4b   Thumb Code     0  startup_stm32f4xx.o(.text)
    DMA2_Stream1_IRQHandler                  0x08012f4b   Thumb Code     0  startup_stm32f4xx.o(.text)
    DMA2_Stream2_IRQHandler                  0x08012f4b   Thumb Code     0  startup_stm32f4xx.o(.text)
    DMA2_Stream3_IRQHandler                  0x08012f4b   Thumb Code     0  startup_stm32f4xx.o(.text)
    DMA2_Stream4_IRQHandler                  0x08012f4b   Thumb Code     0  startup_stm32f4xx.o(.text)
    DMA2_Stream5_IRQHandler                  0x08012f4b   Thumb Code     0  startup_stm32f4xx.o(.text)
    DMA2_Stream6_IRQHandler                  0x08012f4b   Thumb Code     0  startup_stm32f4xx.o(.text)
    DMA2_Stream7_IRQHandler                  0x08012f4b   Thumb Code     0  startup_stm32f4xx.o(.text)
    ETH_WKUP_IRQHandler                      0x08012f4b   Thumb Code     0  startup_stm32f4xx.o(.text)
    EXTI0_IRQHandler                         0x08012f4b   Thumb Code     0  startup_stm32f4xx.o(.text)
    EXTI15_10_IRQHandler                     0x08012f4b   Thumb Code     0  startup_stm32f4xx.o(.text)
    EXTI1_IRQHandler                         0x08012f4b   Thumb Code     0  startup_stm32f4xx.o(.text)
    EXTI2_IRQHandler                         0x08012f4b   Thumb Code     0  startup_stm32f4xx.o(.text)
    EXTI3_IRQHandler                         0x08012f4b   Thumb Code     0  startup_stm32f4xx.o(.text)
    EXTI4_IRQHandler                         0x08012f4b   Thumb Code     0  startup_stm32f4xx.o(.text)
    EXTI9_5_IRQHandler                       0x08012f4b   Thumb Code     0  startup_stm32f4xx.o(.text)
    FLASH_IRQHandler                         0x08012f4b   Thumb Code     0  startup_stm32f4xx.o(.text)
    FPU_IRQHandler                           0x08012f4b   Thumb Code     0  startup_stm32f4xx.o(.text)
    FSMC_IRQHandler                          0x08012f4b   Thumb Code     0  startup_stm32f4xx.o(.text)
    HASH_RNG_IRQHandler                      0x08012f4b   Thumb Code     0  startup_stm32f4xx.o(.text)
    I2C1_ER_IRQHandler                       0x08012f4b   Thumb Code     0  startup_stm32f4xx.o(.text)
    I2C1_EV_IRQHandler                       0x08012f4b   Thumb Code     0  startup_stm32f4xx.o(.text)
    I2C2_ER_IRQHandler                       0x08012f4b   Thumb Code     0  startup_stm32f4xx.o(.text)
    I2C2_EV_IRQHandler                       0x08012f4b   Thumb Code     0  startup_stm32f4xx.o(.text)
    I2C3_ER_IRQHandler                       0x08012f4b   Thumb Code     0  startup_stm32f4xx.o(.text)
    I2C3_EV_IRQHandler                       0x08012f4b   Thumb Code     0  startup_stm32f4xx.o(.text)
    OTG_FS_IRQHandler                        0x08012f4b   Thumb Code     0  startup_stm32f4xx.o(.text)
    OTG_FS_WKUP_IRQHandler                   0x08012f4b   Thumb Code     0  startup_stm32f4xx.o(.text)
    OTG_HS_EP1_IN_IRQHandler                 0x08012f4b   Thumb Code     0  startup_stm32f4xx.o(.text)
    OTG_HS_EP1_OUT_IRQHandler                0x08012f4b   Thumb Code     0  startup_stm32f4xx.o(.text)
    OTG_HS_IRQHandler                        0x08012f4b   Thumb Code     0  startup_stm32f4xx.o(.text)
    OTG_HS_WKUP_IRQHandler                   0x08012f4b   Thumb Code     0  startup_stm32f4xx.o(.text)
    PVD_IRQHandler                           0x08012f4b   Thumb Code     0  startup_stm32f4xx.o(.text)
    RCC_IRQHandler                           0x08012f4b   Thumb Code     0  startup_stm32f4xx.o(.text)
    RTC_Alarm_IRQHandler                     0x08012f4b   Thumb Code     0  startup_stm32f4xx.o(.text)
    RTC_WKUP_IRQHandler                      0x08012f4b   Thumb Code     0  startup_stm32f4xx.o(.text)
    SDIO_IRQHandler                          0x08012f4b   Thumb Code     0  startup_stm32f4xx.o(.text)
    SPI1_IRQHandler                          0x08012f4b   Thumb Code     0  startup_stm32f4xx.o(.text)
    SPI2_IRQHandler                          0x08012f4b   Thumb Code     0  startup_stm32f4xx.o(.text)
    SPI3_IRQHandler                          0x08012f4b   Thumb Code     0  startup_stm32f4xx.o(.text)
    TAMP_STAMP_IRQHandler                    0x08012f4b   Thumb Code     0  startup_stm32f4xx.o(.text)
    TIM1_BRK_TIM9_IRQHandler                 0x08012f4b   Thumb Code     0  startup_stm32f4xx.o(.text)
    TIM1_CC_IRQHandler                       0x08012f4b   Thumb Code     0  startup_stm32f4xx.o(.text)
    TIM1_TRG_COM_TIM11_IRQHandler            0x08012f4b   Thumb Code     0  startup_stm32f4xx.o(.text)
    TIM1_UP_TIM10_IRQHandler                 0x08012f4b   Thumb Code     0  startup_stm32f4xx.o(.text)
    TIM4_IRQHandler                          0x08012f4b   Thumb Code     0  startup_stm32f4xx.o(.text)
    TIM5_IRQHandler                          0x08012f4b   Thumb Code     0  startup_stm32f4xx.o(.text)
    TIM6_DAC_IRQHandler                      0x08012f4b   Thumb Code     0  startup_stm32f4xx.o(.text)
    TIM7_IRQHandler                          0x08012f4b   Thumb Code     0  startup_stm32f4xx.o(.text)
    TIM8_BRK_TIM12_IRQHandler                0x08012f4b   Thumb Code     0  startup_stm32f4xx.o(.text)
    TIM8_CC_IRQHandler                       0x08012f4b   Thumb Code     0  startup_stm32f4xx.o(.text)
    TIM8_TRG_COM_TIM14_IRQHandler            0x08012f4b   Thumb Code     0  startup_stm32f4xx.o(.text)
    TIM8_UP_TIM13_IRQHandler                 0x08012f4b   Thumb Code     0  startup_stm32f4xx.o(.text)
    UART5_IRQHandler                         0x08012f4b   Thumb Code     0  startup_stm32f4xx.o(.text)
    USART1_IRQHandler                        0x08012f4b   Thumb Code     0  startup_stm32f4xx.o(.text)
    WWDG_IRQHandler                          0x08012f4b   Thumb Code     0  startup_stm32f4xx.o(.text)
    eMBInit                                  0x08012f55   Thumb Code    14  tcp_mb.o(.text)
    eMBTCPInit                               0x08012f63   Thumb Code    60  tcp_mb.o(.text)
    eMBRegisterCB                            0x08012f9f   Thumb Code   106  tcp_mb.o(.text)
    eMBClose                                 0x08013009   Thumb Code    28  tcp_mb.o(.text)
    eMBEnable                                0x08013025   Thumb Code    28  tcp_mb.o(.text)
    eMBDisable                               0x08013041   Thumb Code    28  tcp_mb.o(.text)
    eMBPoll                                  0x0801305d   Thumb Code   172  tcp_mb.o(.text)
    eMBTCPDoInit                             0x08013121   Thumb Code    16  mbtcp.o(.text)
    eMBTCPStart                              0x08013131   Thumb Code     2  mbtcp.o(.text)
    eMBTCPStop                               0x08013133   Thumb Code     4  mbtcp.o(.text)
    eMBTCPReceive                            0x08013137   Thumb Code    58  mbtcp.o(.text)
    eMBTCPSend                               0x08013171   Thumb Code    30  mbtcp.o(.text)
    prvvMBPortReleaseClient                  0x08013191   Thumb Code   104  port_tcp.o(.text)
    xMBTCPPortInit                           0x08013313   Thumb Code    76  port_tcp.o(.text)
    vMBTCPPortClose                          0x0801335f   Thumb Code    18  port_tcp.o(.text)
    vMBTCPPortDisable                        0x08013371   Thumb Code     6  port_tcp.o(.text)
    xMBTCPPortGetRequest                     0x08013377   Thumb Code    18  port_tcp.o(.text)
    xMBTCPPortSendResponse                   0x08013389   Thumb Code    54  port_tcp.o(.text)
    xMBPortEventInit                         0x080134fd   Thumb Code    10  portevent_tcp.o(.text)
    xMBPortEventPost                         0x08013507   Thumb Code    12  portevent_tcp.o(.text)
    xMBPortEventGet                          0x08013513   Thumb Code    24  portevent_tcp.o(.text)
    vMBPortLog                               0x08013531   Thumb Code    32  portother_tcp.o(.text)
    prvvMBTCPLogFrame                        0x08013551   Thumb Code   158  portother_tcp.o(.text)
    eMBSetSlaveID                            0x08013661   Thumb Code    64  mbfuncother.o(.text)
    eMBFuncReportSlaveID                     0x080136a1   Thumb Code    26  mbfuncother.o(.text)
    xMBUtilSetBits                           0x080136c5   Thumb Code    50  mbutils.o(.text)
    xMBUtilGetBits                           0x080136f7   Thumb Code    34  mbutils.o(.text)
    prveMBError2Exception                    0x08013719   Thumb Code    24  mbutils.o(.text)
    __aeabi_memcpy                           0x08013731   Thumb Code    36  memcpya.o(.text)
    __aeabi_memcpy4                          0x08013731   Thumb Code     0  memcpya.o(.text)
    __aeabi_memcpy8                          0x08013731   Thumb Code     0  memcpya.o(.text)
    __aeabi_memset                           0x08013755   Thumb Code    14  memseta.o(.text)
    __aeabi_memset4                          0x08013755   Thumb Code     0  memseta.o(.text)
    __aeabi_memset8                          0x08013755   Thumb Code     0  memseta.o(.text)
    __aeabi_memclr                           0x08013763   Thumb Code     4  memseta.o(.text)
    __aeabi_memclr4                          0x08013763   Thumb Code     0  memseta.o(.text)
    __aeabi_memclr8                          0x08013763   Thumb Code     0  memseta.o(.text)
    memset                                   0x08013767   Thumb Code    18  memseta.o(.text)
    strcat                                   0x08013779   Thumb Code    24  strcat.o(.text)
    strstr                                   0x08013791   Thumb Code    36  strstr.o(.text)
    strlen                                   0x080137b5   Thumb Code    14  strlen.o(.text)
    strcmp                                   0x080137c3   Thumb Code    28  strcmp.o(.text)
    memcmp                                   0x080137df   Thumb Code    26  memcmp.o(.text)
    strncat                                  0x080137f9   Thumb Code    40  strncat.o(.text)
    strcpy                                   0x08013821   Thumb Code    18  strcpy.o(.text)
    strncmp                                  0x08013833   Thumb Code    30  strncmp.o(.text)
    strpbrk                                  0x08013851   Thumb Code    32  strpbrk.o(.text)
    atoi                                     0x08013871   Thumb Code    26  atoi.o(.text)
    __aeabi_cdrcmple                         0x0801388d   Thumb Code    48  cdrcmple.o(.text)
    __aeabi_uidiv                            0x080138bd   Thumb Code     0  uidiv.o(.text)
    __aeabi_uidivmod                         0x080138bd   Thumb Code    44  uidiv.o(.text)
    __aeabi_uldivmod                         0x080138e9   Thumb Code    98  uldiv.o(.text)
    strtol                                   0x0801394b   Thumb Code   112  strtol.o(.text)
    __I$use$fp                               0x080139bb   Thumb Code     0  iusefp.o(.text)
    _double_round                            0x080139bb   Thumb Code    30  depilogue.o(.text)
    _double_epilogue                         0x080139d9   Thumb Code   156  depilogue.o(.text)
    __aeabi_dadd                             0x08013a75   Thumb Code   322  dadd.o(.text)
    __aeabi_dsub                             0x08013bb7   Thumb Code     6  dadd.o(.text)
    __aeabi_drsub                            0x08013bbd   Thumb Code     6  dadd.o(.text)
    __aeabi_dmul                             0x08013bc3   Thumb Code   228  dmul.o(.text)
    __aeabi_ddiv                             0x08013ca7   Thumb Code   222  ddiv.o(.text)
    __aeabi_d2ulz                            0x08013d85   Thumb Code    48  dfixul.o(.text)
    __scatterload                            0x08013db5   Thumb Code    28  init.o(.text)
    __scatterload_rt2                        0x08013db5   Thumb Code     0  init.o(.text)
    __aeabi_llsl                             0x08013dd9   Thumb Code    30  llshl.o(.text)
    _ll_shift_l                              0x08013dd9   Thumb Code     0  llshl.o(.text)
    __aeabi_llsr                             0x08013df7   Thumb Code    32  llushr.o(.text)
    _ll_ushift_r                             0x08013df7   Thumb Code     0  llushr.o(.text)
    __aeabi_lasr                             0x08013e17   Thumb Code    36  llsshr.o(.text)
    _ll_sshift_r                             0x08013e17   Thumb Code     0  llsshr.o(.text)
    __rt_ctype_table                         0x08013e3d   Thumb Code     4  ctype_o.o(.text)
    _strtoul                                 0x08013e45   Thumb Code   158  _strtoul.o(.text)
    _chval                                   0x08013ee3   Thumb Code    28  _chval.o(.text)
    __decompress                             0x08013eff   Thumb Code     0  __dczerorl2.o(.text)
    __decompress1                            0x08013eff   Thumb Code    86  __dczerorl2.o(.text)
    __0printf$8                              0x08013f55   Thumb Code    22  printf8.o(i.__0printf$8)
    __1printf$8                              0x08013f55   Thumb Code     0  printf8.o(i.__0printf$8)
    __2printf                                0x08013f55   Thumb Code     0  printf8.o(i.__0printf$8)
    __0snprintf$8                            0x08013f75   Thumb Code    44  printf8.o(i.__0snprintf$8)
    __1snprintf$8                            0x08013f75   Thumb Code     0  printf8.o(i.__0snprintf$8)
    __2snprintf                              0x08013f75   Thumb Code     0  printf8.o(i.__0snprintf$8)
    __0sprintf$8                             0x08013fa5   Thumb Code    34  printf8.o(i.__0sprintf$8)
    __1sprintf$8                             0x08013fa5   Thumb Code     0  printf8.o(i.__0sprintf$8)
    __2sprintf                               0x08013fa5   Thumb Code     0  printf8.o(i.__0sprintf$8)
    __0vprintf                               0x08013fcd   Thumb Code     8  printfa.o(i.__0vprintf)
    __1vprintf                               0x08013fcd   Thumb Code     0  printfa.o(i.__0vprintf)
    __2vprintf                               0x08013fcd   Thumb Code     0  printfa.o(i.__0vprintf)
    __c89vprintf                             0x08013fcd   Thumb Code     0  printfa.o(i.__0vprintf)
    vprintf                                  0x08013fcd   Thumb Code     0  printfa.o(i.__0vprintf)
    __aeabi_errno_addr                       0x08013fdd   Thumb Code     4  errno.o(i.__aeabi_errno_addr)
    __rt_errno_addr                          0x08013fdd   Thumb Code     0  errno.o(i.__aeabi_errno_addr)
    __scatterload_copy                       0x08013fe5   Thumb Code    14  handlers.o(i.__scatterload_copy)
    __scatterload_null                       0x08013ff3   Thumb Code     2  handlers.o(i.__scatterload_null)
    __scatterload_zeroinit                   0x08013ff5   Thumb Code    14  handlers.o(i.__scatterload_zeroinit)
    file__common_js                          0x0801d13c   Data          20  fs.o(.constdata)
    file__style_css                          0x0801d150   Data          20  fs.o(.constdata)
    file__404_html                           0x0801d164   Data          20  fs.o(.constdata)
    file__reboot_html                        0x0801d178   Data          20  fs.o(.constdata)
    file__maintain_html                      0x0801d18c   Data          20  fs.o(.constdata)
    file__hostconfig_html                    0x0801d1a0   Data          20  fs.o(.constdata)
    file__lanconfig_html                     0x0801d1b4   Data          20  fs.o(.constdata)
    file__portconfig_html                    0x0801d1c8   Data          20  fs.o(.constdata)
    file__index_html                         0x0801d1dc   Data          20  fs.o(.constdata)
    file__login_html                         0x0801d1f0   Data          20  fs.o(.constdata)
    tcp_persist_backoff                      0x0801d554   Data           7  tcp.o(.constdata)
    tcp_backoff                              0x0801d55b   Data          13  tcp.o(.constdata)
    ip_addr_any                              0x0801d568   Data           4  ip_addr.o(.constdata)
    ip_addr_broadcast                        0x0801d56c   Data           4  ip_addr.o(.constdata)
    ethbroadcast                             0x0801d570   Data           6  etharp.o(.constdata)
    ethzero                                  0x0801d576   Data           6  etharp.o(.constdata)
    BUTTON_PORT_SOURCE                       0x0801d580   Data           1  stm32f4_discovery.o(.constdata)
    BUTTON_PIN_SOURCE                        0x0801d581   Data           1  stm32f4_discovery.o(.constdata)
    BUTTON_IRQn                              0x0801d582   Data           1  stm32f4_discovery.o(.constdata)
    BUTTON_PIN                               0x0801d584   Data           2  stm32f4_discovery.o(.constdata)
    BUTTON_EXTI_LINE                         0x0801d586   Data           2  stm32f4_discovery.o(.constdata)
    BUTTON_CLK                               0x0801d588   Data           4  stm32f4_discovery.o(.constdata)
    COM_TX_PIN                               0x0801d58c   Data           4  stm32f4_discovery.o(.constdata)
    COM_RX_PIN                               0x0801d590   Data           4  stm32f4_discovery.o(.constdata)
    COM_TX_PIN_SOURCE                        0x0801d594   Data           4  stm32f4_discovery.o(.constdata)
    COM_RX_PIN_SOURCE                        0x0801d598   Data           4  stm32f4_discovery.o(.constdata)
    COM_TX_AF                                0x0801d59c   Data           4  stm32f4_discovery.o(.constdata)
    COM_RX_AF                                0x0801d5a0   Data           4  stm32f4_discovery.o(.constdata)
    COM_USART_CLK                            0x0801d5a4   Data           8  stm32f4_discovery.o(.constdata)
    COM_TX_PORT_CLK                          0x0801d5ac   Data           8  stm32f4_discovery.o(.constdata)
    COM_RX_PORT_CLK                          0x0801d5b4   Data           8  stm32f4_discovery.o(.constdata)
    GPIO_PIN                                 0x0801d5bc   Data          10  stm32f4_discovery.o(.constdata)
    GPIO_CLK                                 0x0801d5c8   Data          20  stm32f4_discovery.o(.constdata)
    __ctype_table                            0x0801d5dc   Data         129  ctype_o.o(.constdata)
    Region$$Table$$Base                      0x0801d758   Number         0  anon$$obj.o(Region$$Table)
    Region$$Table$$Limit                     0x0801d778   Number         0  anon$$obj.o(Region$$Table)
    ucFlashUpdate                            0x20000000   Data           1  main.o(.data)
    xQueuemessage                            0x20000004   Data           4  main.o(.data)
    xQueueState                              0x20000008   Data           4  main.o(.data)
    SystemCoreClock                          0x2000000c   Data           4  system_stm32f4xx.o(.data)
    AHBPrescTable                            0x20000010   Data          16  system_stm32f4xx.o(.data)
    ucIP                                     0x20000020   Data           4  netconf.o(.data)
    ucGW                                     0x20000024   Data           4  netconf.o(.data)
    ucNM                                     0x20000028   Data           4  netconf.o(.data)
    EthInitStatus                            0x20000030   Data           4  stm32f4x7_eth_bsp.o(.data)
    EthEnable                                0x20000034   Data           4  stm32f4x7_eth_bsp.o(.data)
    ucReadProgram                            0x20000048   Data           1  api_server.o(.data)
    ucWriteProgram                           0x20000049   Data           1  api_server.o(.data)
    ucSystemReboot                           0x2000004a   Data           1  api_server.o(.data)
    pxMasterFrameCBByteReceived              0x2000008c   Data           4  rs485bus_m.o(.data)
    pxMasterFrameCBTransmitterEmpty          0x20000090   Data           4  rs485bus_m.o(.data)
    pxMasterPortCBTimerExpired               0x20000094   Data           4  rs485bus_m.o(.data)
    netif_list                               0x20000128   Data           4  netif.o(.data)
    netif_default                            0x2000012c   Data           4  netif.o(.data)
    tcp_ticks                                0x2000013c   Data           4  tcp.o(.data)
    tcp_bound_pcbs                           0x20000140   Data           4  tcp.o(.data)
    tcp_listen_pcbs                          0x20000144   Data           4  tcp.o(.data)
    tcp_active_pcbs                          0x20000148   Data           4  tcp.o(.data)
    tcp_tw_pcbs                              0x2000014c   Data           4  tcp.o(.data)
    tcp_tmp_pcb                              0x20000150   Data           4  tcp.o(.data)
    tcp_state_str                            0x20000154   Data          44  tcp.o(.data)
    tcp_input_pcb                            0x20000198   Data           4  tcp_in.o(.data)
    udp_pcbs                                 0x2000019c   Data           4  udp.o(.data)
    current_netif                            0x200001a4   Data           4  ip.o(.data)
    current_header                           0x200001a8   Data           4  ip.o(.data)
    s_xSemaphore                             0x200001b4   Data           4  ethernetif.o(.data)
    __stdout                                 0x200001c8   Data           4  stm32f4xx_uartstdio.o(.data)
    BUTTON_PORT                              0x200001cc   Data           4  stm32f4_discovery.o(.data)
    COM_USART                                0x200001d0   Data           8  stm32f4_discovery.o(.data)
    COM_TX_PORT                              0x200001d8   Data           8  stm32f4_discovery.o(.data)
    COM_RX_PORT                              0x200001e0   Data           8  stm32f4_discovery.o(.data)
    GPIO_PORT                                0x200001e8   Data          20  stm32f4_discovery.o(.data)
    DMATxDescToSet                           0x200001fc   Data           4  stm32f4x7_eth.o(.data)
    DMARxDescToGet                           0x20000200   Data           4  stm32f4x7_eth.o(.data)
    DMA_RX_FRAME_infos                       0x20000204   Data           4  stm32f4x7_eth.o(.data)
    pxCurrentTCB                             0x20000218   Data           4  tasks.o(.data)
    ip_lan                                   0x200002c0   Data          16  main.o(.bss)
    user                                     0x200002d0   Data          24  main.o(.bss)
    host                                     0x200002e8   Data         104  main.o(.bss)
    CTport                                   0x20000350   Data         124  main.o(.bss)
    xnetif                                   0x200003cc   Data          60  netconf.o(.bss)
    fs_memory                                0x20000408   Data         240  fs.o(.bss)
    numberpackage                            0x20000518   Data          12  mqttclienttask.o(.bss)
    DMARxDscrTab                             0x20005dd8   Data         160  stm32f4x7_eth.o(.bss)
    DMATxDscrTab                             0x20005e78   Data         160  stm32f4x7_eth.o(.bss)
    Rx_Buff                                  0x20005f18   Data        7620  stm32f4x7_eth.o(.bss)
    Tx_Buff                                  0x20007cdc   Data        7620  stm32f4x7_eth.o(.bss)
    RX_Frame_Descriptor                      0x20009aa0   Data          12  stm32f4x7_eth.o(.bss)
    xQueueRegistry                           0x20009aac   Data          64  queue.o(.bss)
    __initial_sp                             0x2001e228   Data           0  startup_stm32f4xx.o(STACK)



==============================================================================

Memory Map of the image

  Image Entry point : 0x08000189

  Load Region LR_IROM1 (Base: 0x08000000, Size: 0x0001da38, Max: 0x00020000, ABSOLUTE, COMPRESSED[0x0001d818])

    Execution Region ER_IROM1 (Exec base: 0x08000000, Load base: 0x08000000, Size: 0x0001d778, Max: 0x00020000, ABSOLUTE)

    Exec Addr    Load Addr    Size         Type   Attr      Idx    E Section Name        Object

    0x08000000   0x08000000   0x00000188   Data   RO         2462    RESET               startup_stm32f4xx.o
    0x08000188   0x08000188   0x00000000   Code   RO         2665  * .ARM.Collect$$$$00000000  mc_w.l(entry.o)
    0x08000188   0x08000188   0x00000004   Code   RO         2967    .ARM.Collect$$$$00000001  mc_w.l(entry2.o)
    0x0800018c   0x0800018c   0x00000004   Code   RO         2970    .ARM.Collect$$$$00000004  mc_w.l(entry5.o)
    0x08000190   0x08000190   0x00000000   Code   RO         2972    .ARM.Collect$$$$00000008  mc_w.l(entry7b.o)
    0x08000190   0x08000190   0x00000000   Code   RO         2974    .ARM.Collect$$$$0000000A  mc_w.l(entry8b.o)
    0x08000190   0x08000190   0x00000008   Code   RO         2975    .ARM.Collect$$$$0000000B  mc_w.l(entry9a.o)
    0x08000198   0x08000198   0x00000000   Code   RO         2977    .ARM.Collect$$$$0000000D  mc_w.l(entry10a.o)
    0x08000198   0x08000198   0x00000000   Code   RO         2979    .ARM.Collect$$$$0000000F  mc_w.l(entry11a.o)
    0x08000198   0x08000198   0x00000004   Code   RO         2968    .ARM.Collect$$$$00002712  mc_w.l(entry2.o)
    0x0800019c   0x0800019c   0x000000be   Code   RO         2374    .emb_text           port.o
    0x0800025a   0x0800025a   0x00000002   PAD
    0x0800025c   0x0800025c   0x00000a40   Code   RO            2    .text               main.o
    0x08000c9c   0x08000c9c   0x00000180   Code   RO          335    .text               system_stm32f4xx.o
    0x08000e1c   0x08000e1c   0x00000078   Code   RO          361    .text               stm32f4xx_it.o
    0x08000e94   0x08000e94   0x000001a4   Code   RO          405    .text               netconf.o
    0x08001038   0x08001038   0x000002f0   Code   RO          485    .text               stm32f4x7_eth_bsp.o
    0x08001328   0x08001328   0x000000d8   Code   RO          507    .text               fs.o
    0x08001400   0x08001400   0x00000f38   Code   RO          552    .text               httpserver-socket.o
    0x08002338   0x08002338   0x00000150   Code   RO          600    .text               miscellaneous.o
    0x08002488   0x08002488   0x00000c84   Code   RO          634    .text               api_server.o
    0x0800310c   0x0800310c   0x00000a08   Code   RO          662    .text               mqttclienttask.o
    0x08003b14   0x08003b14   0x000000dc   Code   RO          720    .text               key_scan.o
    0x08003bf0   0x08003bf0   0x000000c8   Code   RO          737    .text               keyscan_task.o
    0x08003cb8   0x08003cb8   0x000000a0   Code   RO          754    .text               rs485bus_task_m.o
    0x08003d58   0x08003d58   0x000000c0   Code   RO          803    .text               tcpmbbus_task.o
    0x08003e18   0x08003e18   0x0000078c   Code   RO          835    .text               mqttclient.o
    0x080045a4   0x080045a4   0x000001b0   Code   RO          852    .text               mqttfreertos.o
    0x08004754   0x08004754   0x00000224   Code   RO          865    .text               mqttconnectclient.o
    0x08004978   0x08004978   0x000000d4   Code   RO          889    .text               mqttdeserializepublish.o
    0x08004a4c   0x08004a4c   0x000002fc   Code   RO          917    .text               mqttpacket.o
    0x08004d48   0x08004d48   0x00000116   Code   RO          932    .text               mqttserializepublish.o
    0x08004e5e   0x08004e5e   0x00000134   Code   RO          945    .text               mqttsubscribeclient.o
    0x08004f92   0x08004f92   0x000000ce   Code   RO          970    .text               mqttunsubscribeclient.o
    0x08005060   0x08005060   0x0000002c   Code   RO          995    .text               rs485crc.o
    0x0800508c   0x0800508c   0x000002a8   Code   RO         1037    .text               rs485bus_m.o
    0x08005334   0x08005334   0x00000348   Code   RO         1066    .text               rs485rtu_m.o
    0x0800567c   0x0800567c   0x0000006c   Code   RO         1087    .text               rs485funcperiodicping_m.o
    0x080056e8   0x080056e8   0x0000038c   Code   RO         1122    .text               portserial_m.o
    0x08005a74   0x08005a74   0x0000020c   Code   RO         1150    .text               porttimer_m.o
    0x08005c80   0x08005c80   0x000000a4   Code   RO         1177    .text               user_rs485_app_m.o
    0x08005d24   0x08005d24   0x00000140   Code   RO         1194    .text               portevent_m.o
    0x08005e64   0x08005e64   0x000001f0   Code   RO         1299    .text               mbfuncholding_m.o
    0x08006054   0x08006054   0x00000300   Code   RO         1311    .text               api_lib.o
    0x08006354   0x08006354   0x000008bc   Code   RO         1347    .text               api_msg.o
    0x08006c10   0x08006c10   0x0000012e   Code   RO         1377    .text               netbuf.o
    0x08006d3e   0x08006d3e   0x00000002   PAD
    0x08006d40   0x08006d40   0x00000d3c   Code   RO         1404    .text               sockets.o
    0x08007a7c   0x08007a7c   0x000002f0   Code   RO         1420    .text               tcpip.o
    0x08007d6c   0x08007d6c   0x00000e1c   Code   RO         1467    .text               dhcp.o
    0x08008b88   0x08008b88   0x0000001a   Code   RO         1489    .text               init.o
    0x08008ba2   0x08008ba2   0x00000002   PAD
    0x08008ba4   0x08008ba4   0x00000278   Code   RO         1518    .text               mem.o
    0x08008e1c   0x08008e1c   0x00000088   Code   RO         1533    .text               memp.o
    0x08008ea4   0x08008ea4   0x00000190   Code   RO         1562    .text               netif.o
    0x08009034   0x08009034   0x000003e8   Code   RO         1585    .text               pbuf.o
    0x0800941c   0x0800941c   0x00000160   Code   RO         1601    .text               raw.o
    0x0800957c   0x0800957c   0x000001d8   Code   RO         1621    .text               sys.o
    0x08009754   0x08009754   0x0000091c   Code   RO         1642    .text               tcp.o
    0x0800a070   0x0800a070   0x00000c54   Code   RO         1664    .text               tcp_in.o
    0x0800acc4   0x0800acc4   0x000008f4   Code   RO         1687    .text               tcp_out.o
    0x0800b5b8   0x0800b5b8   0x0000033c   Code   RO         1699    .text               udp.o
    0x0800b8f4   0x0800b8f4   0x000002ec   Code   RO         1729    .text               autoip.o
    0x0800bbe0   0x0800bbe0   0x0000017a   Code   RO         1741    .text               icmp.o
    0x0800bd5a   0x0800bd5a   0x00000002   PAD
    0x0800bd5c   0x0800bd5c   0x0000016c   Code   RO         1759    .text               inet.o
    0x0800bec8   0x0800bec8   0x00000118   Code   RO         1773    .text               inet_chksum.o
    0x0800bfe0   0x0800bfe0   0x000002b0   Code   RO         1785    .text               ip.o
    0x0800c290   0x0800c290   0x00000030   Code   RO         1803    .text               ip_addr.o
    0x0800c2c0   0x0800c2c0   0x00000580   Code   RO         1832    .text               etharp.o
    0x0800c840   0x0800c840   0x00000240   Code   RO         1869    .text               ethernetif.o
    0x0800ca80   0x0800ca80   0x000001c4   Code   RO         1888    .text               sys_arch.o
    0x0800cc44   0x0800cc44   0x00000574   Code   RO         1907    .text               stm32f4xx_uartstdio.o
    0x0800d1b8   0x0800d1b8   0x000004cc   Code   RO         1969    .text               stm32f4_discovery.o
    0x0800d684   0x0800d684   0x00000ae4   Code   RO         2016    .text               stm32f4x7_eth.o
    0x0800e168   0x0800e168   0x00000338   Code   RO         2042    .text               stm32f4xx_usart.o
    0x0800e4a0   0x0800e4a0   0x000000b0   Code   RO         2058    .text               misc.o
    0x0800e550   0x0800e550   0x00000354   Code   RO         2074    .text               stm32f4xx_adc.o
    0x0800e8a4   0x0800e8a4   0x00000320   Code   RO         2090    .text               stm32f4xx_dma.o
    0x0800ebc4   0x0800ebc4   0x000000e8   Code   RO         2106    .text               stm32f4xx_exti.o
    0x0800ecac   0x0800ecac   0x000001ec   Code   RO         2138    .text               stm32f4xx_gpio.o
    0x0800ee98   0x0800ee98   0x000003dc   Code   RO         2154    .text               stm32f4xx_rcc.o
    0x0800f274   0x0800f274   0x00000078   Code   RO         2172    .text               stm32f4xx_syscfg.o
    0x0800f2ec   0x0800f2ec   0x000001b8   Code   RO         2188    .text               stm32f4xx_sdio.o
    0x0800f4a4   0x0800f4a4   0x000009dc   Code   RO         2204    .text               stm32f4xx_tim.o
    0x0800fe80   0x0800fe80   0x00000390   Code   RO         2237    .text               stm32f4xx_flash.o
    0x08010210   0x08010210   0x00000a4c   Code   RO         2270    .text               stm32f4xx_rtc.o
    0x08010c5c   0x08010c5c   0x000000d0   Code   RO         2287    .text               stm32f4xx_pwr.o
    0x08010d2c   0x08010d2c   0x0000008a   Code   RO         2311    .text               list.o
    0x08010db6   0x08010db6   0x00000002   PAD
    0x08010db8   0x08010db8   0x00000b40   Code   RO         2323    .text               queue.o
    0x080118f8   0x080118f8   0x000012ec   Code   RO         2351    .text               tasks.o
    0x08012be4   0x08012be4   0x00000254   Code   RO         2375    .text               port.o
    0x08012e38   0x08012e38   0x000000f8   Code   RO         2405    .text               heap_2.o
    0x08012f30   0x08012f30   0x00000024   Code   RO         2463    .text               startup_stm32f4xx.o
    0x08012f54   0x08012f54   0x000001cc   Code   RO         2467    .text               tcp_mb.o
    0x08013120   0x08013120   0x0000006e   Code   RO         2506    .text               mbtcp.o
    0x0801318e   0x0801318e   0x00000002   PAD
    0x08013190   0x08013190   0x0000036c   Code   RO         2522    .text               port_tcp.o
    0x080134fc   0x080134fc   0x00000034   Code   RO         2547    .text               portevent_tcp.o
    0x08013530   0x08013530   0x00000130   Code   RO         2561    .text               portother_tcp.o
    0x08013660   0x08013660   0x00000064   Code   RO         2638    .text               mbfuncother.o
    0x080136c4   0x080136c4   0x0000006c   Code   RO         2653    .text               mbutils.o
    0x08013730   0x08013730   0x00000024   Code   RO         2670    .text               mc_w.l(memcpya.o)
    0x08013754   0x08013754   0x00000024   Code   RO         2674    .text               mc_w.l(memseta.o)
    0x08013778   0x08013778   0x00000018   Code   RO         2676    .text               mc_w.l(strcat.o)
    0x08013790   0x08013790   0x00000024   Code   RO         2678    .text               mc_w.l(strstr.o)
    0x080137b4   0x080137b4   0x0000000e   Code   RO         2680    .text               mc_w.l(strlen.o)
    0x080137c2   0x080137c2   0x0000001c   Code   RO         2682    .text               mc_w.l(strcmp.o)
    0x080137de   0x080137de   0x0000001a   Code   RO         2684    .text               mc_w.l(memcmp.o)
    0x080137f8   0x080137f8   0x00000028   Code   RO         2686    .text               mc_w.l(strncat.o)
    0x08013820   0x08013820   0x00000012   Code   RO         2688    .text               mc_w.l(strcpy.o)
    0x08013832   0x08013832   0x0000001e   Code   RO         2690    .text               mc_w.l(strncmp.o)
    0x08013850   0x08013850   0x00000020   Code   RO         2692    .text               mc_w.l(strpbrk.o)
    0x08013870   0x08013870   0x0000001a   Code   RO         2957    .text               mc_w.l(atoi.o)
    0x0801388a   0x0801388a   0x00000002   PAD
    0x0801388c   0x0801388c   0x00000030   Code   RO         2965    .text               mf_w.l(cdrcmple.o)
    0x080138bc   0x080138bc   0x0000002c   Code   RO         2981    .text               mc_w.l(uidiv.o)
    0x080138e8   0x080138e8   0x00000062   Code   RO         2983    .text               mc_w.l(uldiv.o)
    0x0801394a   0x0801394a   0x00000070   Code   RO         2992    .text               mc_w.l(strtol.o)
    0x080139ba   0x080139ba   0x00000000   Code   RO         2994    .text               mc_w.l(iusefp.o)
    0x080139ba   0x080139ba   0x000000ba   Code   RO         2995    .text               mf_w.l(depilogue.o)
    0x08013a74   0x08013a74   0x0000014e   Code   RO         2997    .text               mf_w.l(dadd.o)
    0x08013bc2   0x08013bc2   0x000000e4   Code   RO         2999    .text               mf_w.l(dmul.o)
    0x08013ca6   0x08013ca6   0x000000de   Code   RO         3001    .text               mf_w.l(ddiv.o)
    0x08013d84   0x08013d84   0x00000030   Code   RO         3003    .text               mf_w.l(dfixul.o)
    0x08013db4   0x08013db4   0x00000024   Code   RO         3005    .text               mc_w.l(init.o)
    0x08013dd8   0x08013dd8   0x0000001e   Code   RO         3007    .text               mc_w.l(llshl.o)
    0x08013df6   0x08013df6   0x00000020   Code   RO         3009    .text               mc_w.l(llushr.o)
    0x08013e16   0x08013e16   0x00000024   Code   RO         3011    .text               mc_w.l(llsshr.o)
    0x08013e3a   0x08013e3a   0x00000002   PAD
    0x08013e3c   0x08013e3c   0x00000008   Code   RO         3013    .text               mc_w.l(ctype_o.o)
    0x08013e44   0x08013e44   0x0000009e   Code   RO         3041    .text               mc_w.l(_strtoul.o)
    0x08013ee2   0x08013ee2   0x0000001c   Code   RO         3043    .text               mc_w.l(_chval.o)
    0x08013efe   0x08013efe   0x00000056   Code   RO         3053    .text               mc_w.l(__dczerorl2.o)
    0x08013f54   0x08013f54   0x00000020   Code   RO         2903    i.__0printf$8       mc_w.l(printf8.o)
    0x08013f74   0x08013f74   0x00000030   Code   RO         2904    i.__0snprintf$8     mc_w.l(printf8.o)
    0x08013fa4   0x08013fa4   0x00000028   Code   RO         2905    i.__0sprintf$8      mc_w.l(printf8.o)
    0x08013fcc   0x08013fcc   0x00000010   Code   RO         2933    i.__0vprintf        mc_w.l(printfa.o)
    0x08013fdc   0x08013fdc   0x00000008   Code   RO         2985    i.__aeabi_errno_addr  mc_w.l(errno.o)
    0x08013fe4   0x08013fe4   0x0000000e   Code   RO         3047    i.__scatterload_copy  mc_w.l(handlers.o)
    0x08013ff2   0x08013ff2   0x00000002   Code   RO         3048    i.__scatterload_null  mc_w.l(handlers.o)
    0x08013ff4   0x08013ff4   0x0000000e   Code   RO         3049    i.__scatterload_zeroinit  mc_w.l(handlers.o)
    0x08014002   0x08014002   0x00000002   PAD
    0x08014004   0x08014004   0x00000184   Code   RO         2936    i._fp_digits        mc_w.l(printfa.o)
    0x08014188   0x08014188   0x00000410   Code   RO         2910    i._printf_core      mc_w.l(printf8.o)
    0x08014598   0x08014598   0x000006dc   Code   RO         2937    i._printf_core      mc_w.l(printfa.o)
    0x08014c74   0x08014c74   0x00000024   Code   RO         2911    i._printf_post_padding  mc_w.l(printf8.o)
    0x08014c98   0x08014c98   0x00000024   Code   RO         2938    i._printf_post_padding  mc_w.l(printfa.o)
    0x08014cbc   0x08014cbc   0x0000002e   Code   RO         2912    i._printf_pre_padding  mc_w.l(printf8.o)
    0x08014cea   0x08014cea   0x0000002e   Code   RO         2939    i._printf_pre_padding  mc_w.l(printfa.o)
    0x08014d18   0x08014d18   0x00000016   Code   RO         2913    i._snputc           mc_w.l(printf8.o)
    0x08014d2e   0x08014d2e   0x0000000a   Code   RO         2914    i._sputc            mc_w.l(printf8.o)
    0x08014d38   0x08014d38   0x000004db   Data   RO          509    .constdata          fs.o
    0x08015213   0x08015213   0x00001108   Data   RO          510    .constdata          fs.o
    0x0801631b   0x0801631b   0x00000ea4   Data   RO          511    .constdata          fs.o
    0x080171bf   0x080171bf   0x0000110a   Data   RO          512    .constdata          fs.o
    0x080182c9   0x080182c9   0x00001019   Data   RO          513    .constdata          fs.o
    0x080192e2   0x080192e2   0x000010f3   Data   RO          514    .constdata          fs.o
    0x0801a3d5   0x0801a3d5   0x0000024a   Data   RO          515    .constdata          fs.o
    0x0801a61f   0x0801a61f   0x00000cc3   Data   RO          516    .constdata          fs.o
    0x0801b2e2   0x0801b2e2   0x000000c0   Data   RO          517    .constdata          fs.o
    0x0801b3a2   0x0801b3a2   0x00001d9a   Data   RO          518    .constdata          fs.o
    0x0801d13c   0x0801d13c   0x00000014   Data   RO          519    .constdata          fs.o
    0x0801d150   0x0801d150   0x00000014   Data   RO          520    .constdata          fs.o
    0x0801d164   0x0801d164   0x00000014   Data   RO          521    .constdata          fs.o
    0x0801d178   0x0801d178   0x00000014   Data   RO          522    .constdata          fs.o
    0x0801d18c   0x0801d18c   0x00000014   Data   RO          523    .constdata          fs.o
    0x0801d1a0   0x0801d1a0   0x00000014   Data   RO          524    .constdata          fs.o
    0x0801d1b4   0x0801d1b4   0x00000014   Data   RO          525    .constdata          fs.o
    0x0801d1c8   0x0801d1c8   0x00000014   Data   RO          526    .constdata          fs.o
    0x0801d1dc   0x0801d1dc   0x00000014   Data   RO          527    .constdata          fs.o
    0x0801d1f0   0x0801d1f0   0x00000014   Data   RO          528    .constdata          fs.o
    0x0801d204   0x0801d204   0x00000032   Data   RO          554    .constdata          httpserver-socket.o
    0x0801d236   0x0801d236   0x00000002   PAD
    0x0801d238   0x0801d238   0x00000058   Data   RO          664    .constdata          mqttclienttask.o
    0x0801d290   0x0801d290   0x00000058   Data   RO          836    .constdata          mqttclient.o
    0x0801d2e8   0x0801d2e8   0x00000200   Data   RO          996    .constdata          rs485crc.o
    0x0801d4e8   0x0801d4e8   0x0000003c   Data   RO         1406    .constdata          sockets.o
    0x0801d524   0x0801d524   0x00000030   Data   RO         1535    .constdata          memp.o
    0x0801d554   0x0801d554   0x00000014   Data   RO         1643    .constdata          tcp.o
    0x0801d568   0x0801d568   0x00000004   Data   RO         1804    .constdata          ip_addr.o
    0x0801d56c   0x0801d56c   0x00000004   Data   RO         1805    .constdata          ip_addr.o
    0x0801d570   0x0801d570   0x0000000c   Data   RO         1834    .constdata          etharp.o
    0x0801d57c   0x0801d57c   0x00000004   Data   RO         1908    .constdata          stm32f4xx_uartstdio.o
    0x0801d580   0x0801d580   0x0000005c   Data   RO         1970    .constdata          stm32f4_discovery.o
    0x0801d5dc   0x0801d5dc   0x00000081   Data   RO         3014    .constdata          mc_w.l(ctype_o.o)
    0x0801d65d   0x0801d65d   0x00000003   PAD
    0x0801d660   0x0801d660   0x00000004   Data   RO         3015    .constdata          mc_w.l(ctype_o.o)
    0x0801d664   0x0801d664   0x00000046   Data   RO            5    .conststring        main.o
    0x0801d6aa   0x0801d6aa   0x00000002   PAD
    0x0801d6ac   0x0801d6ac   0x00000075   Data   RO         1644    .conststring        tcp.o
    0x0801d721   0x0801d721   0x00000003   PAD
    0x0801d724   0x0801d724   0x00000011   Data   RO         1909    .conststring        stm32f4xx_uartstdio.o
    0x0801d735   0x0801d735   0x00000003   PAD
    0x0801d738   0x0801d738   0x0000001e   Data   RO         2563    .conststring        portother_tcp.o
    0x0801d756   0x0801d756   0x00000002   PAD
    0x0801d758   0x0801d758   0x00000020   Data   RO         3045    Region$$Table       anon$$obj.o


    Execution Region RW_IRAM1 (Exec base: 0x20000000, Load base: 0x0801d778, Size: 0x0001e228, Max: 0x00020000, ABSOLUTE, COMPRESSED[0x000000a0])

    Exec Addr    Load Addr    Size         Type   Attr      Idx    E Section Name        Object

    0x20000000   COMPRESSED   0x0000000c   Data   RW            6    .data               main.o
    0x2000000c   COMPRESSED   0x00000014   Data   RW          336    .data               system_stm32f4xx.o
    0x20000020   COMPRESSED   0x0000000c   Data   RW          407    .data               netconf.o
    0x2000002c   COMPRESSED   0x0000000c   Data   RW          486    .data               stm32f4x7_eth_bsp.o
    0x20000038   COMPRESSED   0x00000010   Data   RW          556    .data               httpserver-socket.o
    0x20000048   COMPRESSED   0x00000003   Data   RW          635    .data               api_server.o
    0x2000004b   COMPRESSED   0x0000000e   Data   RW          804    .data               tcpmbbus_task.o
    0x20000059   COMPRESSED   0x00000003   PAD
    0x2000005c   COMPRESSED   0x00000004   Data   RW          918    .data               mqttpacket.o
    0x20000060   COMPRESSED   0x00000060   Data   RW         1038    .data               rs485bus_m.o
    0x200000c0   COMPRESSED   0x00000028   Data   RW         1068    .data               rs485rtu_m.o
    0x200000e8   COMPRESSED   0x00000004   Data   RW         1123    .data               portserial_m.o
    0x200000ec   COMPRESSED   0x00000004   Data   RW         1152    .data               porttimer_m.o
    0x200000f0   COMPRESSED   0x00000004   Data   RW         1196    .data               portevent_m.o
    0x200000f4   COMPRESSED   0x0000000c   Data   RW         1407    .data               sockets.o
    0x20000100   COMPRESSED   0x00000010   Data   RW         1421    .data               tcpip.o
    0x20000110   COMPRESSED   0x00000004   Data   RW         1468    .data               dhcp.o
    0x20000114   COMPRESSED   0x00000010   Data   RW         1520    .data               mem.o
    0x20000124   COMPRESSED   0x0000000c   Data   RW         1563    .data               netif.o
    0x20000130   COMPRESSED   0x00000004   Data   RW         1602    .data               raw.o
    0x20000134   COMPRESSED   0x0000004c   Data   RW         1645    .data               tcp.o
    0x20000180   COMPRESSED   0x0000001c   Data   RW         1666    .data               tcp_in.o
    0x2000019c   COMPRESSED   0x00000004   Data   RW         1700    .data               udp.o
    0x200001a0   COMPRESSED   0x0000000c   Data   RW         1786    .data               ip.o
    0x200001ac   COMPRESSED   0x00000001   Data   RW         1835    .data               etharp.o
    0x200001ad   COMPRESSED   0x00000003   PAD
    0x200001b0   COMPRESSED   0x0000000c   Data   RW         1870    .data               ethernetif.o
    0x200001bc   COMPRESSED   0x00000002   Data   RW         1890    .data               sys_arch.o
    0x200001be   COMPRESSED   0x00000002   PAD
    0x200001c0   COMPRESSED   0x00000008   Data   RW         1910    .data               stm32f4xx_uartstdio.o
    0x200001c8   COMPRESSED   0x00000004   Data   RW         1911    .data               stm32f4xx_uartstdio.o
    0x200001cc   COMPRESSED   0x00000030   Data   RW         1971    .data               stm32f4_discovery.o
    0x200001fc   COMPRESSED   0x0000000c   Data   RW         2022    .data               stm32f4x7_eth.o
    0x20000208   COMPRESSED   0x00000010   Data   RW         2155    .data               stm32f4xx_rcc.o
    0x20000218   COMPRESSED   0x0000003c   Data   RW         2353    .data               tasks.o
    0x20000254   COMPRESSED   0x0000000c   Data   RW         2376    .data               port.o
    0x20000260   COMPRESSED   0x00000018   Data   RW         2407    .data               heap_2.o
    0x20000278   COMPRESSED   0x00000020   Data   RW         2469    .data               tcp_mb.o
    0x20000298   COMPRESSED   0x0000000c   Data   RW         2524    .data               port_tcp.o
    0x200002a4   COMPRESSED   0x00000002   Data   RW         2548    .data               portevent_tcp.o
    0x200002a6   COMPRESSED   0x00000002   PAD
    0x200002a8   COMPRESSED   0x00000010   Data   RW         2564    .data               portother_tcp.o
    0x200002b8   COMPRESSED   0x00000002   Data   RW         2640    .data               mbfuncother.o
    0x200002ba   COMPRESSED   0x00000002   PAD
    0x200002bc   COMPRESSED   0x00000004   Data   RW         2988    .data               mc_w.l(errno.o)
    0x200002c0        -       0x0000010c   Zero   RW            3    .bss                main.o
    0x200003cc        -       0x0000003c   Zero   RW          406    .bss                netconf.o
    0x20000408        -       0x000000f0   Zero   RW          508    .bss                fs.o
    0x200004f8        -       0x00000020   Zero   RW          601    .bss                miscellaneous.o
    0x20000518        -       0x0000000c   Zero   RW          663    .bss                mqttclienttask.o
    0x20000524        -       0x00000804   Zero   RW         1067    .bss                rs485rtu_m.o
    0x20000d28        -       0x00000010   Zero   RW         1151    .bss                porttimer_m.o
    0x20000d38        -       0x00000010   Zero   RW         1195    .bss                portevent_m.o
    0x20000d48        -       0x00000050   Zero   RW         1405    .bss                sockets.o
    0x20000d98        -       0x00001414   Zero   RW         1519    .bss                mem.o
    0x200021ac        -       0x00003b37   Zero   RW         1534    .bss                memp.o
    0x20005ce3   COMPRESSED   0x00000001   PAD
    0x20005ce4        -       0x00000014   Zero   RW         1665    .bss                tcp_in.o
    0x20005cf8        -       0x00000010   Zero   RW         1760    .bss                inet.o
    0x20005d08        -       0x000000a0   Zero   RW         1833    .bss                etharp.o
    0x20005da8        -       0x00000030   Zero   RW         1889    .bss                sys_arch.o
    0x20005dd8        -       0x000000a0   Zero   RW         2017    .bss                stm32f4x7_eth.o
    0x20005e78        -       0x000000a0   Zero   RW         2018    .bss                stm32f4x7_eth.o
    0x20005f18        -       0x00001dc4   Zero   RW         2019    .bss                stm32f4x7_eth.o
    0x20007cdc        -       0x00001dc4   Zero   RW         2020    .bss                stm32f4x7_eth.o
    0x20009aa0        -       0x0000000c   Zero   RW         2021    .bss                stm32f4x7_eth.o
    0x20009aac        -       0x00000040   Zero   RW         2324    .bss                queue.o
    0x20009aec        -       0x00000190   Zero   RW         2352    .bss                tasks.o
    0x20009c7c        -       0x00014000   Zero   RW         2406    .bss                heap_2.o
    0x2001dc7c        -       0x00000080   Zero   RW         2468    .bss                tcp_mb.o
    0x2001dcfc        -       0x00000107   Zero   RW         2523    .bss                port_tcp.o
    0x2001de03        -       0x00000200   Zero   RW         2562    .bss                portother_tcp.o
    0x2001e003        -       0x00000020   Zero   RW         2639    .bss                mbfuncother.o
    0x2001e023   COMPRESSED   0x00000005   PAD
    0x2001e028        -       0x00000200   Zero   RW         2460    STACK               startup_stm32f4xx.o


==============================================================================

Image component sizes


      Code (inc. data)   RO Data    RW Data    ZI Data      Debug   Object Name

       768         46          0          0          0      20388   api_lib.o
      2236         36          0          0          0       9167   api_msg.o
      3204        488          0          3          0       8233   api_server.o
       748         32          0          0          0       4450   autoip.o
      3612         46          0          4          0      12809   dhcp.o
      1408         20         12          1        160       9664   etharp.o
       576         68          0         12          0       4194   ethernetif.o
       216         10      33996          0        240       5617   fs.o
       248         14          0         24      81920       3556   heap_2.o
      3896       1356         50         16          0      13110   httpserver-socket.o
       378          0          0          0          0       2335   icmp.o
       364         12          0          0         16       3490   inet.o
       280          0          0          0          0       2882   inet_chksum.o
        26          0          0          0          0       1911   init.o
       688         12          0         12          0       6310   ip.o
        48          0          8          0          0       5837   ip_addr.o
       220         12          0          0          0       2138   key_scan.o
       200         58          0          0          0       1009   keyscan_task.o
       138          0          0          0          0       2134   list.o
      2624        746         70         12        268     419223   main.o
       496        144          0          0          0       5169   mbfuncholding_m.o
       100         10          0          2         32       2109   mbfuncother.o
       110          0          0          0          0       3296   mbtcp.o
       108          0          0          0          0       2282   mbutils.o
       632          8          0         16       5140       4042   mem.o
       136          8         48          0      15159       2738   memp.o
       176         12          0          0          0       2245   misc.o
       336         50          0          0         32       3377   miscellaneous.o
      1932         20         88          0          0      14885   mqttclient.o
      2568        688         88          0         12      10418   mqttclienttask.o
       548         18          0          0          0       3554   mqttconnectclient.o
       212          0          0          0          0       2174   mqttdeserializepublish.o
       432         12          0          0          0       4537   mqttfreertos.o
       764          8          0          4          0       6866   mqttpacket.o
       278          0          0          0          0       3472   mqttserializepublish.o
       308          0          0          0          0       2913   mqttsubscribeclient.o
       206          0          0          0          0       2543   mqttunsubscribeclient.o
       302          0          0          0          0       3473   netbuf.o
       420         38          0         12         60      13357   netconf.o
       400         14          0         12          0       6018   netif.o
      1000          0          0          0          0       6622   pbuf.o
       786         46          0         12          0       9485   port.o
       876        318          0         12        263       5191   port_tcp.o
       320         16          0          4         16       4044   portevent_m.o
        52          6          0          2          0       1884   portevent_tcp.o
       304        124         30         16        512       3341   portother_tcp.o
       908         52          0          4          0       5946   portserial_m.o
       524         20          0          4         16       3566   porttimer_m.o
      2880         12          0          0         64      27183   queue.o
       352          6          0          4          0       3877   raw.o
       680         70          0         96          0       8298   rs485bus_m.o
       160         26          0          0          0       1868   rs485bus_task_m.o
        44          6        512          0          0       1523   rs485crc.o
       108         22          0          0          0       2063   rs485funcperiodicping_m.o
       840         22          0         40       2052       6369   rs485rtu_m.o
         0          0          0          0          0       1452   rs485utils.o
      3388         50         60         12         80      15807   sockets.o
        36          8        392          0        512        852   startup_stm32f4xx.o
      1228         68         92         48          0       6237   stm32f4_discovery.o
      2788         84          0         12      15572      21563   stm32f4x7_eth.o
       752         60          0         12          0       3314   stm32f4x7_eth_bsp.o
       852         20          0          0          0      11218   stm32f4xx_adc.o
       800         32          0          0          0       7265   stm32f4xx_dma.o
       232          8          0          0          0       2751   stm32f4xx_exti.o
       912         20          0          0          0       7703   stm32f4xx_flash.o
       492         36          0          0          0       4749   stm32f4xx_gpio.o
       120         12          0          0          0      10713   stm32f4xx_it.o
       208         12          0          0          0       2784   stm32f4xx_pwr.o
       988         42          0         16          0      11807   stm32f4xx_rcc.o
      2636         48          0          0          0      16542   stm32f4xx_rtc.o
       440         14          0          0          0       7832   stm32f4xx_sdio.o
       120         18          0          0          0       1863   stm32f4xx_syscfg.o
      2524         52          0          0          0      24298   stm32f4xx_tim.o
      1396         72         21         12          0       7468   stm32f4xx_uartstdio.o
       824         24          0          0          0       8564   stm32f4xx_usart.o
       472          4          0          0          0       3616   sys.o
       452          8          0          2         48       5482   sys_arch.o
       384         40          0         20          0       2099   system_stm32f4xx.o
      4844        104          0         60        400      27721   tasks.o
      2332         46        137         76          0      19118   tcp.o
      3156         64          0         28         20      13716   tcp_in.o
       460         24          0         32        128       7013   tcp_mb.o
      2292         12          0          0          0       7634   tcp_out.o
       752         60          0         16          0      15457   tcpip.o
       192         70          0         14          0       2747   tcpmbbus_task.o
       828          8          0          4          0      14377   udp.o
       164          4          0          0          0       3150   user_rs485_app_m.o

    ----------------------------------------------------------------------
     79252       5856      35648        700     122728    1026097   Object Totals
         0          0         32          0          0          0   (incl. Generated)
        12          0         12         12          6          0   (incl. Padding)

    ----------------------------------------------------------------------

      Code (inc. data)   RO Data    RW Data    ZI Data      Debug   Library Member Name

        86          0          0          0          0          0   __dczerorl2.o
        28          0          0          0          0         68   _chval.o
       158          0          0          0          0         92   _strtoul.o
        26          0          0          0          0         80   atoi.o
         8          4        133          0          0         68   ctype_o.o
         0          0          0          0          0          0   entry.o
         0          0          0          0          0          0   entry10a.o
         0          0          0          0          0          0   entry11a.o
         8          4          0          0          0          0   entry2.o
         4          0          0          0          0          0   entry5.o
         0          0          0          0          0          0   entry7b.o
         0          0          0          0          0          0   entry8b.o
         8          4          0          0          0          0   entry9a.o
         8          4          0          4          0         68   errno.o
        30          0          0          0          0          0   handlers.o
        36          8          0          0          0         68   init.o
         0          0          0          0          0          0   iusefp.o
        30          0          0          0          0         68   llshl.o
        36          0          0          0          0         68   llsshr.o
        32          0          0          0          0         68   llushr.o
        26          0          0          0          0         80   memcmp.o
        36          0          0          0          0         68   memcpya.o
        36          0          0          0          0        108   memseta.o
      1274         64          0          0          0        656   printf8.o
      2242         88          0          0          0        436   printfa.o
        24          0          0          0          0         68   strcat.o
        28          0          0          0          0         76   strcmp.o
        18          0          0          0          0         68   strcpy.o
        14          0          0          0          0         68   strlen.o
        40          0          0          0          0         76   strncat.o
        30          0          0          0          0         80   strncmp.o
        32          0          0          0          0         76   strpbrk.o
        36          0          0          0          0         80   strstr.o
       112          0          0          0          0         88   strtol.o
        44          0          0          0          0         80   uidiv.o
        98          0          0          0          0         92   uldiv.o
        48          0          0          0          0         68   cdrcmple.o
       334          0          0          0          0        148   dadd.o
       222          0          0          0          0        100   ddiv.o
       186          0          0          0          0        176   depilogue.o
        48          0          0          0          0         68   dfixul.o
       228          0          0          0          0         96   dmul.o

    ----------------------------------------------------------------------
      5660        176        136          4          0       3504   Library Totals
         6          0          3          0          0          0   (incl. Padding)

    ----------------------------------------------------------------------

      Code (inc. data)   RO Data    RW Data    ZI Data      Debug   Library Name

      4588        176        133          4          0       2848   mc_w.l
      1066          0          0          0          0        656   mf_w.l

    ----------------------------------------------------------------------
      5660        176        136          4          0       3504   Library Totals

    ----------------------------------------------------------------------

==============================================================================


      Code (inc. data)   RO Data    RW Data    ZI Data      Debug   

     84912       6032      35784        704     122728    1007909   Grand Totals
     84912       6032      35784        160     122728    1007909   ELF Image Totals (compressed)
     84912       6032      35784        160          0          0   ROM Totals

==============================================================================

    Total RO  Size (Code + RO Data)               120696 ( 117.87kB)
    Total RW  Size (RW Data + ZI Data)            123432 ( 120.54kB)
    Total ROM Size (Code + RO Data + RW Data)     120856 ( 118.02kB)

==============================================================================

